
bomb:     file format elf64-x86-64


Disassembly of section .init:

0000000000400af8 <_init>:
_init():
  400af8:	48 83 ec 08          	sub    $0x8,%rsp
  400afc:	48 8b 05 95 29 20 00 	mov    0x202995(%rip),%rax        # 603498 <_DYNAMIC+0x1d0>
  400b03:	48 85 c0             	test   %rax,%rax
  400b06:	74 05                	je     400b0d <_init+0x15>
  400b08:	e8 33 01 00 00       	callq  400c40 <__gmon_start__@plt>
  400b0d:	48 83 c4 08          	add    $0x8,%rsp
  400b11:	c3                   	retq   

Disassembly of section .plt:

0000000000400b20 <getenv@plt-0x10>:
  400b20:	ff 35 82 29 20 00    	pushq  0x202982(%rip)        # 6034a8 <_GLOBAL_OFFSET_TABLE_+0x8>
  400b26:	ff 25 84 29 20 00    	jmpq   *0x202984(%rip)        # 6034b0 <_GLOBAL_OFFSET_TABLE_+0x10>
  400b2c:	0f 1f 40 00          	nopl   0x0(%rax)

0000000000400b30 <getenv@plt>:
  400b30:	ff 25 82 29 20 00    	jmpq   *0x202982(%rip)        # 6034b8 <_GLOBAL_OFFSET_TABLE_+0x18>
  400b36:	68 00 00 00 00       	pushq  $0x0
  400b3b:	e9 e0 ff ff ff       	jmpq   400b20 <_init+0x28>

0000000000400b40 <__errno_location@plt>:
  400b40:	ff 25 7a 29 20 00    	jmpq   *0x20297a(%rip)        # 6034c0 <_GLOBAL_OFFSET_TABLE_+0x20>
  400b46:	68 01 00 00 00       	pushq  $0x1
  400b4b:	e9 d0 ff ff ff       	jmpq   400b20 <_init+0x28>

0000000000400b50 <strcpy@plt>:
  400b50:	ff 25 72 29 20 00    	jmpq   *0x202972(%rip)        # 6034c8 <_GLOBAL_OFFSET_TABLE_+0x28>
  400b56:	68 02 00 00 00       	pushq  $0x2
  400b5b:	e9 c0 ff ff ff       	jmpq   400b20 <_init+0x28>

0000000000400b60 <puts@plt>:
  400b60:	ff 25 6a 29 20 00    	jmpq   *0x20296a(%rip)        # 6034d0 <_GLOBAL_OFFSET_TABLE_+0x30>
  400b66:	68 03 00 00 00       	pushq  $0x3
  400b6b:	e9 b0 ff ff ff       	jmpq   400b20 <_init+0x28>

0000000000400b70 <write@plt>:
  400b70:	ff 25 62 29 20 00    	jmpq   *0x202962(%rip)        # 6034d8 <_GLOBAL_OFFSET_TABLE_+0x38>
  400b76:	68 04 00 00 00       	pushq  $0x4
  400b7b:	e9 a0 ff ff ff       	jmpq   400b20 <_init+0x28>

0000000000400b80 <strlen@plt>:
  400b80:	ff 25 5a 29 20 00    	jmpq   *0x20295a(%rip)        # 6034e0 <_GLOBAL_OFFSET_TABLE_+0x40>
  400b86:	68 05 00 00 00       	pushq  $0x5
  400b8b:	e9 90 ff ff ff       	jmpq   400b20 <_init+0x28>

0000000000400b90 <htons@plt>:
  400b90:	ff 25 52 29 20 00    	jmpq   *0x202952(%rip)        # 6034e8 <_GLOBAL_OFFSET_TABLE_+0x48>
  400b96:	68 06 00 00 00       	pushq  $0x6
  400b9b:	e9 80 ff ff ff       	jmpq   400b20 <_init+0x28>

0000000000400ba0 <printf@plt>:
  400ba0:	ff 25 4a 29 20 00    	jmpq   *0x20294a(%rip)        # 6034f0 <_GLOBAL_OFFSET_TABLE_+0x50>
  400ba6:	68 07 00 00 00       	pushq  $0x7
  400bab:	e9 70 ff ff ff       	jmpq   400b20 <_init+0x28>

0000000000400bb0 <alarm@plt>:
  400bb0:	ff 25 42 29 20 00    	jmpq   *0x202942(%rip)        # 6034f8 <_GLOBAL_OFFSET_TABLE_+0x58>
  400bb6:	68 08 00 00 00       	pushq  $0x8
  400bbb:	e9 60 ff ff ff       	jmpq   400b20 <_init+0x28>

0000000000400bc0 <close@plt>:
  400bc0:	ff 25 3a 29 20 00    	jmpq   *0x20293a(%rip)        # 603500 <_GLOBAL_OFFSET_TABLE_+0x60>
  400bc6:	68 09 00 00 00       	pushq  $0x9
  400bcb:	e9 50 ff ff ff       	jmpq   400b20 <_init+0x28>

0000000000400bd0 <read@plt>:
  400bd0:	ff 25 32 29 20 00    	jmpq   *0x202932(%rip)        # 603508 <_GLOBAL_OFFSET_TABLE_+0x68>
  400bd6:	68 0a 00 00 00       	pushq  $0xa
  400bdb:	e9 40 ff ff ff       	jmpq   400b20 <_init+0x28>

0000000000400be0 <__libc_start_main@plt>:
  400be0:	ff 25 2a 29 20 00    	jmpq   *0x20292a(%rip)        # 603510 <_GLOBAL_OFFSET_TABLE_+0x70>
  400be6:	68 0b 00 00 00       	pushq  $0xb
  400beb:	e9 30 ff ff ff       	jmpq   400b20 <_init+0x28>

0000000000400bf0 <fgets@plt>:
  400bf0:	ff 25 22 29 20 00    	jmpq   *0x202922(%rip)        # 603518 <_GLOBAL_OFFSET_TABLE_+0x78>
  400bf6:	68 0c 00 00 00       	pushq  $0xc
  400bfb:	e9 20 ff ff ff       	jmpq   400b20 <_init+0x28>

0000000000400c00 <strcmp@plt>:
  400c00:	ff 25 1a 29 20 00    	jmpq   *0x20291a(%rip)        # 603520 <_GLOBAL_OFFSET_TABLE_+0x80>
  400c06:	68 0d 00 00 00       	pushq  $0xd
  400c0b:	e9 10 ff ff ff       	jmpq   400b20 <_init+0x28>

0000000000400c10 <signal@plt>:
  400c10:	ff 25 12 29 20 00    	jmpq   *0x202912(%rip)        # 603528 <_GLOBAL_OFFSET_TABLE_+0x88>
  400c16:	68 0e 00 00 00       	pushq  $0xe
  400c1b:	e9 00 ff ff ff       	jmpq   400b20 <_init+0x28>

0000000000400c20 <gethostbyname@plt>:
  400c20:	ff 25 0a 29 20 00    	jmpq   *0x20290a(%rip)        # 603530 <_GLOBAL_OFFSET_TABLE_+0x90>
  400c26:	68 0f 00 00 00       	pushq  $0xf
  400c2b:	e9 f0 fe ff ff       	jmpq   400b20 <_init+0x28>

0000000000400c30 <fprintf@plt>:
  400c30:	ff 25 02 29 20 00    	jmpq   *0x202902(%rip)        # 603538 <_GLOBAL_OFFSET_TABLE_+0x98>
  400c36:	68 10 00 00 00       	pushq  $0x10
  400c3b:	e9 e0 fe ff ff       	jmpq   400b20 <_init+0x28>

0000000000400c40 <__gmon_start__@plt>:
  400c40:	ff 25 fa 28 20 00    	jmpq   *0x2028fa(%rip)        # 603540 <_GLOBAL_OFFSET_TABLE_+0xa0>
  400c46:	68 11 00 00 00       	pushq  $0x11
  400c4b:	e9 d0 fe ff ff       	jmpq   400b20 <_init+0x28>

0000000000400c50 <memcpy@plt>:
  400c50:	ff 25 f2 28 20 00    	jmpq   *0x2028f2(%rip)        # 603548 <_GLOBAL_OFFSET_TABLE_+0xa8>
  400c56:	68 12 00 00 00       	pushq  $0x12
  400c5b:	e9 c0 fe ff ff       	jmpq   400b20 <_init+0x28>

0000000000400c60 <fflush@plt>:
  400c60:	ff 25 ea 28 20 00    	jmpq   *0x2028ea(%rip)        # 603550 <_GLOBAL_OFFSET_TABLE_+0xb0>
  400c66:	68 13 00 00 00       	pushq  $0x13
  400c6b:	e9 b0 fe ff ff       	jmpq   400b20 <_init+0x28>

0000000000400c70 <__isoc99_sscanf@plt>:
  400c70:	ff 25 e2 28 20 00    	jmpq   *0x2028e2(%rip)        # 603558 <_GLOBAL_OFFSET_TABLE_+0xb8>
  400c76:	68 14 00 00 00       	pushq  $0x14
  400c7b:	e9 a0 fe ff ff       	jmpq   400b20 <_init+0x28>

0000000000400c80 <bcopy@plt>:
  400c80:	ff 25 da 28 20 00    	jmpq   *0x2028da(%rip)        # 603560 <_GLOBAL_OFFSET_TABLE_+0xc0>
  400c86:	68 15 00 00 00       	pushq  $0x15
  400c8b:	e9 90 fe ff ff       	jmpq   400b20 <_init+0x28>

0000000000400c90 <fopen@plt>:
  400c90:	ff 25 d2 28 20 00    	jmpq   *0x2028d2(%rip)        # 603568 <_GLOBAL_OFFSET_TABLE_+0xc8>
  400c96:	68 16 00 00 00       	pushq  $0x16
  400c9b:	e9 80 fe ff ff       	jmpq   400b20 <_init+0x28>

0000000000400ca0 <bzero@plt>:
  400ca0:	ff 25 ca 28 20 00    	jmpq   *0x2028ca(%rip)        # 603570 <_GLOBAL_OFFSET_TABLE_+0xd0>
  400ca6:	68 17 00 00 00       	pushq  $0x17
  400cab:	e9 70 fe ff ff       	jmpq   400b20 <_init+0x28>

0000000000400cb0 <atoi@plt>:
  400cb0:	ff 25 c2 28 20 00    	jmpq   *0x2028c2(%rip)        # 603578 <_GLOBAL_OFFSET_TABLE_+0xd8>
  400cb6:	68 18 00 00 00       	pushq  $0x18
  400cbb:	e9 60 fe ff ff       	jmpq   400b20 <_init+0x28>

0000000000400cc0 <sprintf@plt>:
  400cc0:	ff 25 ba 28 20 00    	jmpq   *0x2028ba(%rip)        # 603580 <_GLOBAL_OFFSET_TABLE_+0xe0>
  400cc6:	68 19 00 00 00       	pushq  $0x19
  400ccb:	e9 50 fe ff ff       	jmpq   400b20 <_init+0x28>

0000000000400cd0 <exit@plt>:
  400cd0:	ff 25 b2 28 20 00    	jmpq   *0x2028b2(%rip)        # 603588 <_GLOBAL_OFFSET_TABLE_+0xe8>
  400cd6:	68 1a 00 00 00       	pushq  $0x1a
  400cdb:	e9 40 fe ff ff       	jmpq   400b20 <_init+0x28>

0000000000400ce0 <connect@plt>:
  400ce0:	ff 25 aa 28 20 00    	jmpq   *0x2028aa(%rip)        # 603590 <_GLOBAL_OFFSET_TABLE_+0xf0>
  400ce6:	68 1b 00 00 00       	pushq  $0x1b
  400ceb:	e9 30 fe ff ff       	jmpq   400b20 <_init+0x28>

0000000000400cf0 <sleep@plt>:
  400cf0:	ff 25 a2 28 20 00    	jmpq   *0x2028a2(%rip)        # 603598 <_GLOBAL_OFFSET_TABLE_+0xf8>
  400cf6:	68 1c 00 00 00       	pushq  $0x1c
  400cfb:	e9 20 fe ff ff       	jmpq   400b20 <_init+0x28>

0000000000400d00 <__ctype_b_loc@plt>:
  400d00:	ff 25 9a 28 20 00    	jmpq   *0x20289a(%rip)        # 6035a0 <_GLOBAL_OFFSET_TABLE_+0x100>
  400d06:	68 1d 00 00 00       	pushq  $0x1d
  400d0b:	e9 10 fe ff ff       	jmpq   400b20 <_init+0x28>

0000000000400d10 <socket@plt>:
  400d10:	ff 25 92 28 20 00    	jmpq   *0x202892(%rip)        # 6035a8 <_GLOBAL_OFFSET_TABLE_+0x108>
  400d16:	68 1e 00 00 00       	pushq  $0x1e
  400d1b:	e9 00 fe ff ff       	jmpq   400b20 <_init+0x28>

Disassembly of section .text:

0000000000400d20 <_start>:
_start():
  400d20:	31 ed                	xor    %ebp,%ebp
  400d22:	49 89 d1             	mov    %rdx,%r9
  400d25:	5e                   	pop    %rsi
  400d26:	48 89 e2             	mov    %rsp,%rdx
  400d29:	48 83 e4 f0          	and    $0xfffffffffffffff0,%rsp
  400d2d:	50                   	push   %rax
  400d2e:	54                   	push   %rsp
  400d2f:	49 c7 c0 90 27 40 00 	mov    $0x402790,%r8
  400d36:	48 c7 c1 20 27 40 00 	mov    $0x402720,%rcx
  400d3d:	48 c7 c7 16 0e 40 00 	mov    $0x400e16,%rdi
  400d44:	e8 97 fe ff ff       	callq  400be0 <__libc_start_main@plt>
  400d49:	f4                   	hlt    
  400d4a:	66 0f 1f 44 00 00    	nopw   0x0(%rax,%rax,1)

0000000000400d50 <deregister_tm_clones>:
deregister_tm_clones():
  400d50:	b8 c7 3c 60 00       	mov    $0x603cc7,%eax
  400d55:	55                   	push   %rbp
  400d56:	48 2d c0 3c 60 00    	sub    $0x603cc0,%rax
  400d5c:	48 83 f8 0e          	cmp    $0xe,%rax
  400d60:	48 89 e5             	mov    %rsp,%rbp
  400d63:	76 1b                	jbe    400d80 <deregister_tm_clones+0x30>
  400d65:	b8 00 00 00 00       	mov    $0x0,%eax
  400d6a:	48 85 c0             	test   %rax,%rax
  400d6d:	74 11                	je     400d80 <deregister_tm_clones+0x30>
  400d6f:	5d                   	pop    %rbp
  400d70:	bf c0 3c 60 00       	mov    $0x603cc0,%edi
  400d75:	ff e0                	jmpq   *%rax
  400d77:	66 0f 1f 84 00 00 00 	nopw   0x0(%rax,%rax,1)
  400d7e:	00 00 
  400d80:	5d                   	pop    %rbp
  400d81:	c3                   	retq   
  400d82:	66 66 66 66 66 2e 0f 	data16 data16 data16 data16 nopw %cs:0x0(%rax,%rax,1)
  400d89:	1f 84 00 00 00 00 00 

0000000000400d90 <register_tm_clones>:
register_tm_clones():
  400d90:	be c0 3c 60 00       	mov    $0x603cc0,%esi
  400d95:	55                   	push   %rbp
  400d96:	48 81 ee c0 3c 60 00 	sub    $0x603cc0,%rsi
  400d9d:	48 c1 fe 03          	sar    $0x3,%rsi
  400da1:	48 89 e5             	mov    %rsp,%rbp
  400da4:	48 89 f0             	mov    %rsi,%rax
  400da7:	48 c1 e8 3f          	shr    $0x3f,%rax
  400dab:	48 01 c6             	add    %rax,%rsi
  400dae:	48 d1 fe             	sar    %rsi
  400db1:	74 15                	je     400dc8 <register_tm_clones+0x38>
  400db3:	b8 00 00 00 00       	mov    $0x0,%eax
  400db8:	48 85 c0             	test   %rax,%rax
  400dbb:	74 0b                	je     400dc8 <register_tm_clones+0x38>
  400dbd:	5d                   	pop    %rbp
  400dbe:	bf c0 3c 60 00       	mov    $0x603cc0,%edi
  400dc3:	ff e0                	jmpq   *%rax
  400dc5:	0f 1f 00             	nopl   (%rax)
  400dc8:	5d                   	pop    %rbp
  400dc9:	c3                   	retq   
  400dca:	66 0f 1f 44 00 00    	nopw   0x0(%rax,%rax,1)

0000000000400dd0 <__do_global_dtors_aux>:
__do_global_dtors_aux():
  400dd0:	80 3d 01 2f 20 00 00 	cmpb   $0x0,0x202f01(%rip)        # 603cd8 <completed.6661>
  400dd7:	75 11                	jne    400dea <__do_global_dtors_aux+0x1a>
  400dd9:	55                   	push   %rbp
  400dda:	48 89 e5             	mov    %rsp,%rbp
  400ddd:	e8 6e ff ff ff       	callq  400d50 <deregister_tm_clones>
  400de2:	5d                   	pop    %rbp
  400de3:	c6 05 ee 2e 20 00 01 	movb   $0x1,0x202eee(%rip)        # 603cd8 <completed.6661>
  400dea:	f3 c3                	repz retq 
  400dec:	0f 1f 40 00          	nopl   0x0(%rax)

0000000000400df0 <frame_dummy>:
frame_dummy():
  400df0:	bf c0 32 60 00       	mov    $0x6032c0,%edi
  400df5:	48 83 3f 00          	cmpq   $0x0,(%rdi)
  400df9:	75 05                	jne    400e00 <frame_dummy+0x10>
  400dfb:	eb 93                	jmp    400d90 <register_tm_clones>
  400dfd:	0f 1f 00             	nopl   (%rax)
  400e00:	b8 00 00 00 00       	mov    $0x0,%eax
  400e05:	48 85 c0             	test   %rax,%rax
  400e08:	74 f1                	je     400dfb <frame_dummy+0xb>
  400e0a:	55                   	push   %rbp
  400e0b:	48 89 e5             	mov    %rsp,%rbp
  400e0e:	ff d0                	callq  *%rax
  400e10:	5d                   	pop    %rbp
  400e11:	e9 7a ff ff ff       	jmpq   400d90 <register_tm_clones>

0000000000400e16 <main>:
main():
/home/tbartens/CS220/proj3/src/bomb.c:37
  400e16:	55                   	push   %rbp
  400e17:	48 89 e5             	mov    %rsp,%rbp
  400e1a:	48 83 ec 20          	sub    $0x20,%rsp
  400e1e:	89 7d ec             	mov    %edi,-0x14(%rbp)
  400e21:	48 89 75 e0          	mov    %rsi,-0x20(%rbp)
/home/tbartens/CS220/proj3/src/bomb.c:45
  400e25:	83 7d ec 01          	cmpl   $0x1,-0x14(%rbp)
  400e29:	75 13                	jne    400e3e <main+0x28>
/home/tbartens/CS220/proj3/src/bomb.c:46
  400e2b:	48 8b 05 96 2e 20 00 	mov    0x202e96(%rip),%rax        # 603cc8 <stdin@@GLIBC_2.2.5>
  400e32:	48 89 05 a7 2e 20 00 	mov    %rax,0x202ea7(%rip)        # 603ce0 <infile>
  400e39:	e9 82 00 00 00       	jmpq   400ec0 <main+0xaa>
/home/tbartens/CS220/proj3/src/bomb.c:53
  400e3e:	83 7d ec 02          	cmpl   $0x2,-0x14(%rbp)
  400e42:	75 59                	jne    400e9d <main+0x87>
/home/tbartens/CS220/proj3/src/bomb.c:54
  400e44:	48 8b 45 e0          	mov    -0x20(%rbp),%rax
  400e48:	48 83 c0 08          	add    $0x8,%rax
  400e4c:	48 8b 00             	mov    (%rax),%rax
  400e4f:	be a8 27 40 00       	mov    $0x4027a8,%esi
  400e54:	48 89 c7             	mov    %rax,%rdi
  400e57:	e8 34 fe ff ff       	callq  400c90 <fopen@plt>
  400e5c:	48 89 05 7d 2e 20 00 	mov    %rax,0x202e7d(%rip)        # 603ce0 <infile>
  400e63:	48 8b 05 76 2e 20 00 	mov    0x202e76(%rip),%rax        # 603ce0 <infile>
  400e6a:	48 85 c0             	test   %rax,%rax
  400e6d:	75 51                	jne    400ec0 <main+0xaa>
/home/tbartens/CS220/proj3/src/bomb.c:55
  400e6f:	48 8b 45 e0          	mov    -0x20(%rbp),%rax
  400e73:	48 83 c0 08          	add    $0x8,%rax
  400e77:	48 8b 10             	mov    (%rax),%rdx
  400e7a:	48 8b 45 e0          	mov    -0x20(%rbp),%rax
  400e7e:	48 8b 00             	mov    (%rax),%rax
  400e81:	48 89 c6             	mov    %rax,%rsi
  400e84:	bf aa 27 40 00       	mov    $0x4027aa,%edi
  400e89:	b8 00 00 00 00       	mov    $0x0,%eax
  400e8e:	e8 0d fd ff ff       	callq  400ba0 <printf@plt>
/home/tbartens/CS220/proj3/src/bomb.c:56
  400e93:	bf 08 00 00 00       	mov    $0x8,%edi
  400e98:	e8 33 fe ff ff       	callq  400cd0 <exit@plt>
/home/tbartens/CS220/proj3/src/bomb.c:62
  400e9d:	48 8b 45 e0          	mov    -0x20(%rbp),%rax
  400ea1:	48 8b 00             	mov    (%rax),%rax
  400ea4:	48 89 c6             	mov    %rax,%rsi
  400ea7:	bf c7 27 40 00       	mov    $0x4027c7,%edi
  400eac:	b8 00 00 00 00       	mov    $0x0,%eax
  400eb1:	e8 ea fc ff ff       	callq  400ba0 <printf@plt>
/home/tbartens/CS220/proj3/src/bomb.c:63
  400eb6:	bf 08 00 00 00       	mov    $0x8,%edi
  400ebb:	e8 10 fe ff ff       	callq  400cd0 <exit@plt>
/home/tbartens/CS220/proj3/src/bomb.c:67
  400ec0:	e8 92 07 00 00       	callq  401657 <initialize_bomb>
/home/tbartens/CS220/proj3/src/bomb.c:69
  400ec5:	bf e8 27 40 00       	mov    $0x4027e8,%edi
  400eca:	e8 91 fc ff ff       	callq  400b60 <puts@plt>
/home/tbartens/CS220/proj3/src/bomb.c:70
  400ecf:	bf 28 28 40 00       	mov    $0x402828,%edi
  400ed4:	e8 87 fc ff ff       	callq  400b60 <puts@plt>
/home/tbartens/CS220/proj3/src/bomb.c:73
  400ed9:	e8 4c 08 00 00       	callq  40172a <read_line>
  400ede:	48 89 45 f8          	mov    %rax,-0x8(%rbp)
/home/tbartens/CS220/proj3/src/bomb.c:74
  400ee2:	48 8b 45 f8          	mov    -0x8(%rbp),%rax
  400ee6:	48 89 c7             	mov    %rax,%rdi
  400ee9:	e8 c0 00 00 00       	callq  400fae <phase_1>
/home/tbartens/CS220/proj3/src/bomb.c:75
  400eee:	e8 bf 09 00 00       	callq  4018b2 <phase_defused>
/home/tbartens/CS220/proj3/src/bomb.c:77
  400ef3:	bf 58 28 40 00       	mov    $0x402858,%edi
  400ef8:	e8 63 fc ff ff       	callq  400b60 <puts@plt>
/home/tbartens/CS220/proj3/src/bomb.c:81
  400efd:	e8 28 08 00 00       	callq  40172a <read_line>
  400f02:	48 89 45 f8          	mov    %rax,-0x8(%rbp)
/home/tbartens/CS220/proj3/src/bomb.c:82
  400f06:	48 8b 45 f8          	mov    -0x8(%rbp),%rax
  400f0a:	48 89 c7             	mov    %rax,%rdi
  400f0d:	e8 c4 00 00 00       	callq  400fd6 <phase_2>
/home/tbartens/CS220/proj3/src/bomb.c:83
  400f12:	e8 9b 09 00 00       	callq  4018b2 <phase_defused>
/home/tbartens/CS220/proj3/src/bomb.c:84
  400f17:	bf 81 28 40 00       	mov    $0x402881,%edi
  400f1c:	e8 3f fc ff ff       	callq  400b60 <puts@plt>
/home/tbartens/CS220/proj3/src/bomb.c:88
  400f21:	e8 04 08 00 00       	callq  40172a <read_line>
  400f26:	48 89 45 f8          	mov    %rax,-0x8(%rbp)
/home/tbartens/CS220/proj3/src/bomb.c:89
  400f2a:	48 8b 45 f8          	mov    -0x8(%rbp),%rax
  400f2e:	48 89 c7             	mov    %rax,%rdi
  400f31:	e8 01 01 00 00       	callq  401037 <phase_3>
/home/tbartens/CS220/proj3/src/bomb.c:90
  400f36:	e8 77 09 00 00       	callq  4018b2 <phase_defused>
/home/tbartens/CS220/proj3/src/bomb.c:91
  400f3b:	bf 9f 28 40 00       	mov    $0x40289f,%edi
  400f40:	e8 1b fc ff ff       	callq  400b60 <puts@plt>
/home/tbartens/CS220/proj3/src/bomb.c:94
  400f45:	e8 e0 07 00 00       	callq  40172a <read_line>
  400f4a:	48 89 45 f8          	mov    %rax,-0x8(%rbp)
/home/tbartens/CS220/proj3/src/bomb.c:95
  400f4e:	48 8b 45 f8          	mov    -0x8(%rbp),%rax
  400f52:	48 89 c7             	mov    %rax,%rdi
  400f55:	e8 09 02 00 00       	callq  401163 <phase_4>
/home/tbartens/CS220/proj3/src/bomb.c:96
  400f5a:	e8 53 09 00 00       	callq  4018b2 <phase_defused>
/home/tbartens/CS220/proj3/src/bomb.c:97
  400f5f:	bf b0 28 40 00       	mov    $0x4028b0,%edi
  400f64:	e8 f7 fb ff ff       	callq  400b60 <puts@plt>
/home/tbartens/CS220/proj3/src/bomb.c:100
  400f69:	e8 bc 07 00 00       	callq  40172a <read_line>
  400f6e:	48 89 45 f8          	mov    %rax,-0x8(%rbp)
/home/tbartens/CS220/proj3/src/bomb.c:101
  400f72:	48 8b 45 f8          	mov    -0x8(%rbp),%rax
  400f76:	48 89 c7             	mov    %rax,%rdi
  400f79:	e8 61 02 00 00       	callq  4011df <phase_5>
/home/tbartens/CS220/proj3/src/bomb.c:102
  400f7e:	e8 2f 09 00 00       	callq  4018b2 <phase_defused>
/home/tbartens/CS220/proj3/src/bomb.c:103
  400f83:	bf d4 28 40 00       	mov    $0x4028d4,%edi
  400f88:	e8 d3 fb ff ff       	callq  400b60 <puts@plt>
/home/tbartens/CS220/proj3/src/bomb.c:107
  400f8d:	e8 98 07 00 00       	callq  40172a <read_line>
  400f92:	48 89 45 f8          	mov    %rax,-0x8(%rbp)
/home/tbartens/CS220/proj3/src/bomb.c:108
  400f96:	48 8b 45 f8          	mov    -0x8(%rbp),%rax
  400f9a:	48 89 c7             	mov    %rax,%rdi
  400f9d:	e8 ac 02 00 00       	callq  40124e <phase_6>
/home/tbartens/CS220/proj3/src/bomb.c:109
  400fa2:	e8 0b 09 00 00       	callq  4018b2 <phase_defused>
/home/tbartens/CS220/proj3/src/bomb.c:114
  400fa7:	b8 00 00 00 00       	mov    $0x0,%eax
/home/tbartens/CS220/proj3/src/bomb.c:115
  400fac:	c9                   	leaveq 
  400fad:	c3                   	retq   

0000000000400fae <phase_1>:
phase_1():
  400fae:	55                   	push   %rbp
  400faf:	48 89 e5             	mov    %rsp,%rbp
  400fb2:	48 83 ec 10          	sub    $0x10,%rsp
  400fb6:	48 89 7d f8          	mov    %rdi,-0x8(%rbp)
  400fba:	48 8b 45 f8          	mov    -0x8(%rbp),%rax
  400fbe:	be f8 28 40 00       	mov    $0x4028f8,%esi
  400fc3:	48 89 c7             	mov    %rax,%rdi
  400fc6:	e8 0a 06 00 00       	callq  4015d5 <strings_not_equal>
  400fcb:	85 c0                	test   %eax,%eax
  400fcd:	74 05                	je     400fd4 <phase_1+0x26>
  400fcf:	e8 bc 08 00 00       	callq  401890 <explode_bomb>
  400fd4:	c9                   	leaveq 
  400fd5:	c3                   	retq   

0000000000400fd6 <phase_2>:
phase_2():
  400fd6:	55                   	push   %rbp
  400fd7:	48 89 e5             	mov    %rsp,%rbp
  400fda:	48 83 ec 30          	sub    $0x30,%rsp
  400fde:	48 89 7d d8          	mov    %rdi,-0x28(%rbp)
  400fe2:	48 8d 55 e0          	lea    -0x20(%rbp),%rdx
  400fe6:	48 8b 45 d8          	mov    -0x28(%rbp),%rax
  400fea:	48 89 d6             	mov    %rdx,%rsi
  400fed:	48 89 c7             	mov    %rax,%rdi
  400ff0:	e8 46 05 00 00       	callq  40153b <read_six_numbers>
  400ff5:	8b 45 e0             	mov    -0x20(%rbp),%eax
  400ff8:	83 f8 01             	cmp    $0x1,%eax
  400ffb:	74 05                	je     401002 <phase_2+0x2c>
  400ffd:	e8 8e 08 00 00       	callq  401890 <explode_bomb>
  401002:	c7 45 fc 01 00 00 00 	movl   $0x1,-0x4(%rbp)
  401009:	eb 24                	jmp    40102f <phase_2+0x59>
  40100b:	8b 45 fc             	mov    -0x4(%rbp),%eax
  40100e:	48 98                	cltq   
  401010:	8b 54 85 e0          	mov    -0x20(%rbp,%rax,4),%edx
  401014:	8b 45 fc             	mov    -0x4(%rbp),%eax
  401017:	83 e8 01             	sub    $0x1,%eax
  40101a:	48 98                	cltq   
  40101c:	8b 44 85 e0          	mov    -0x20(%rbp,%rax,4),%eax
  401020:	01 c0                	add    %eax,%eax
  401022:	39 c2                	cmp    %eax,%edx
  401024:	74 05                	je     40102b <phase_2+0x55>
  401026:	e8 65 08 00 00       	callq  401890 <explode_bomb>
  40102b:	83 45 fc 01          	addl   $0x1,-0x4(%rbp)
  40102f:	83 7d fc 05          	cmpl   $0x5,-0x4(%rbp)
  401033:	7e d6                	jle    40100b <phase_2+0x35>
  401035:	c9                   	leaveq 
  401036:	c3                   	retq   

0000000000401037 <phase_3>:
phase_3():
  401037:	55                   	push   %rbp
  401038:	48 89 e5             	mov    %rsp,%rbp
  40103b:	48 83 ec 20          	sub    $0x20,%rsp
  40103f:	48 89 7d e8          	mov    %rdi,-0x18(%rbp)
  401043:	c7 45 fc 00 00 00 00 	movl   $0x0,-0x4(%rbp)
  40104a:	c7 45 f8 00 00 00 00 	movl   $0x0,-0x8(%rbp)
  401051:	48 8d 4d f0          	lea    -0x10(%rbp),%rcx
  401055:	48 8d 55 f4          	lea    -0xc(%rbp),%rdx
  401059:	48 8b 45 e8          	mov    -0x18(%rbp),%rax
  40105d:	be 2b 29 40 00       	mov    $0x40292b,%esi
  401062:	48 89 c7             	mov    %rax,%rdi
  401065:	b8 00 00 00 00       	mov    $0x0,%eax
  40106a:	e8 01 fc ff ff       	callq  400c70 <__isoc99_sscanf@plt>
  40106f:	89 45 f8             	mov    %eax,-0x8(%rbp)
  401072:	83 7d f8 01          	cmpl   $0x1,-0x8(%rbp)
  401076:	7f 05                	jg     40107d <phase_3+0x46>
  401078:	e8 13 08 00 00       	callq  401890 <explode_bomb>
  40107d:	8b 45 f4             	mov    -0xc(%rbp),%eax
  401080:	83 f8 07             	cmp    $0x7,%eax
  401083:	77 54                	ja     4010d9 <phase_3+0xa2>
  401085:	89 c0                	mov    %eax,%eax
  401087:	48 8b 04 c5 38 29 40 	mov    0x402938(,%rax,8),%rax
  40108e:	00 
  40108f:	ff e0                	jmpq   *%rax
  401091:	c7 45 fc 03 03 00 00 	movl   $0x303,-0x4(%rbp)
  401098:	eb 44                	jmp    4010de <phase_3+0xa7>
  40109a:	c7 45 fc 3a 00 00 00 	movl   $0x3a,-0x4(%rbp)
  4010a1:	eb 3b                	jmp    4010de <phase_3+0xa7>
  4010a3:	c7 45 fc 77 00 00 00 	movl   $0x77,-0x4(%rbp)
  4010aa:	eb 32                	jmp    4010de <phase_3+0xa7>
  4010ac:	c7 45 fc aa 02 00 00 	movl   $0x2aa,-0x4(%rbp)
  4010b3:	eb 29                	jmp    4010de <phase_3+0xa7>
  4010b5:	c7 45 fc f3 00 00 00 	movl   $0xf3,-0x4(%rbp)
  4010bc:	eb 20                	jmp    4010de <phase_3+0xa7>
  4010be:	c7 45 fc c7 01 00 00 	movl   $0x1c7,-0x4(%rbp)
  4010c5:	eb 17                	jmp    4010de <phase_3+0xa7>
  4010c7:	c7 45 fc b4 01 00 00 	movl   $0x1b4,-0x4(%rbp)
  4010ce:	eb 0e                	jmp    4010de <phase_3+0xa7>
  4010d0:	c7 45 fc ec 00 00 00 	movl   $0xec,-0x4(%rbp)
  4010d7:	eb 05                	jmp    4010de <phase_3+0xa7>
  4010d9:	e8 b2 07 00 00       	callq  401890 <explode_bomb>
  4010de:	8b 45 f0             	mov    -0x10(%rbp),%eax
  4010e1:	39 45 fc             	cmp    %eax,-0x4(%rbp)
  4010e4:	74 05                	je     4010eb <phase_3+0xb4>
  4010e6:	e8 a5 07 00 00       	callq  401890 <explode_bomb>
  4010eb:	c9                   	leaveq 
  4010ec:	c3                   	retq   

00000000004010ed <func4>:
func4():
  4010ed:	55                   	push   %rbp
  4010ee:	48 89 e5             	mov    %rsp,%rbp
  4010f1:	48 83 ec 20          	sub    $0x20,%rsp
  4010f5:	89 7d ec             	mov    %edi,-0x14(%rbp)
  4010f8:	89 75 e8             	mov    %esi,-0x18(%rbp)
  4010fb:	89 55 e4             	mov    %edx,-0x1c(%rbp)
  4010fe:	8b 45 e4             	mov    -0x1c(%rbp),%eax
  401101:	2b 45 e8             	sub    -0x18(%rbp),%eax
  401104:	89 c2                	mov    %eax,%edx
  401106:	c1 ea 1f             	shr    $0x1f,%edx
  401109:	01 d0                	add    %edx,%eax
  40110b:	d1 f8                	sar    %eax
  40110d:	89 c2                	mov    %eax,%edx
  40110f:	8b 45 e8             	mov    -0x18(%rbp),%eax
  401112:	01 d0                	add    %edx,%eax
  401114:	89 45 fc             	mov    %eax,-0x4(%rbp)
  401117:	8b 45 fc             	mov    -0x4(%rbp),%eax
  40111a:	3b 45 ec             	cmp    -0x14(%rbp),%eax
  40111d:	7e 19                	jle    401138 <func4+0x4b>
  40111f:	8b 45 fc             	mov    -0x4(%rbp),%eax
  401122:	8d 50 ff             	lea    -0x1(%rax),%edx
  401125:	8b 4d e8             	mov    -0x18(%rbp),%ecx
  401128:	8b 45 ec             	mov    -0x14(%rbp),%eax
  40112b:	89 ce                	mov    %ecx,%esi
  40112d:	89 c7                	mov    %eax,%edi
  40112f:	e8 b9 ff ff ff       	callq  4010ed <func4>
  401134:	01 c0                	add    %eax,%eax
  401136:	eb 29                	jmp    401161 <func4+0x74>
  401138:	8b 45 fc             	mov    -0x4(%rbp),%eax
  40113b:	3b 45 ec             	cmp    -0x14(%rbp),%eax
  40113e:	7d 1c                	jge    40115c <func4+0x6f>
  401140:	8b 45 fc             	mov    -0x4(%rbp),%eax
  401143:	8d 48 01             	lea    0x1(%rax),%ecx
  401146:	8b 55 e4             	mov    -0x1c(%rbp),%edx
  401149:	8b 45 ec             	mov    -0x14(%rbp),%eax
  40114c:	89 ce                	mov    %ecx,%esi
  40114e:	89 c7                	mov    %eax,%edi
  401150:	e8 98 ff ff ff       	callq  4010ed <func4>
  401155:	01 c0                	add    %eax,%eax
  401157:	83 c0 01             	add    $0x1,%eax
  40115a:	eb 05                	jmp    401161 <func4+0x74>
  40115c:	b8 00 00 00 00       	mov    $0x0,%eax
  401161:	c9                   	leaveq 
  401162:	c3                   	retq   

0000000000401163 <phase_4>:
phase_4():
  401163:	55                   	push   %rbp
  401164:	48 89 e5             	mov    %rsp,%rbp
  401167:	48 83 ec 30          	sub    $0x30,%rsp
  40116b:	48 89 7d d8          	mov    %rdi,-0x28(%rbp)
  40116f:	48 8d 4d ec          	lea    -0x14(%rbp),%rcx
  401173:	48 8d 55 f0          	lea    -0x10(%rbp),%rdx
  401177:	48 8b 45 d8          	mov    -0x28(%rbp),%rax
  40117b:	be 2b 29 40 00       	mov    $0x40292b,%esi
  401180:	48 89 c7             	mov    %rax,%rdi
  401183:	b8 00 00 00 00       	mov    $0x0,%eax
  401188:	e8 e3 fa ff ff       	callq  400c70 <__isoc99_sscanf@plt>
  40118d:	89 45 fc             	mov    %eax,-0x4(%rbp)
  401190:	83 7d fc 02          	cmpl   $0x2,-0x4(%rbp)
  401194:	75 0f                	jne    4011a5 <phase_4+0x42>
  401196:	8b 45 f0             	mov    -0x10(%rbp),%eax
  401199:	85 c0                	test   %eax,%eax
  40119b:	78 08                	js     4011a5 <phase_4+0x42>
  40119d:	8b 45 f0             	mov    -0x10(%rbp),%eax
  4011a0:	83 f8 0e             	cmp    $0xe,%eax
  4011a3:	7e 05                	jle    4011aa <phase_4+0x47>
  4011a5:	e8 e6 06 00 00       	callq  401890 <explode_bomb>
  4011aa:	c7 45 f8 03 00 00 00 	movl   $0x3,-0x8(%rbp)
  4011b1:	8b 45 f0             	mov    -0x10(%rbp),%eax
  4011b4:	ba 0e 00 00 00       	mov    $0xe,%edx
  4011b9:	be 00 00 00 00       	mov    $0x0,%esi
  4011be:	89 c7                	mov    %eax,%edi
  4011c0:	e8 28 ff ff ff       	callq  4010ed <func4>
  4011c5:	89 45 f4             	mov    %eax,-0xc(%rbp)
  4011c8:	8b 45 f4             	mov    -0xc(%rbp),%eax
  4011cb:	3b 45 f8             	cmp    -0x8(%rbp),%eax
  4011ce:	75 08                	jne    4011d8 <phase_4+0x75>
  4011d0:	8b 45 ec             	mov    -0x14(%rbp),%eax
  4011d3:	3b 45 f8             	cmp    -0x8(%rbp),%eax
  4011d6:	74 05                	je     4011dd <phase_4+0x7a>
  4011d8:	e8 b3 06 00 00       	callq  401890 <explode_bomb>
  4011dd:	c9                   	leaveq 
  4011de:	c3                   	retq   

00000000004011df <phase_5>:
phase_5():
  4011df:	55                   	push   %rbp
  4011e0:	48 89 e5             	mov    %rsp,%rbp
  4011e3:	48 83 ec 20          	sub    $0x20,%rsp
  4011e7:	48 89 7d e8          	mov    %rdi,-0x18(%rbp)
  4011eb:	48 8b 45 e8          	mov    -0x18(%rbp),%rax
  4011ef:	48 89 c7             	mov    %rax,%rdi
  4011f2:	e8 ac 03 00 00       	callq  4015a3 <string_length>
  4011f7:	89 45 f4             	mov    %eax,-0xc(%rbp)
  4011fa:	83 7d f4 06          	cmpl   $0x6,-0xc(%rbp)
  4011fe:	74 05                	je     401205 <phase_5+0x26>
  401200:	e8 8b 06 00 00       	callq  401890 <explode_bomb>
  401205:	c7 45 f8 00 00 00 00 	movl   $0x0,-0x8(%rbp)
  40120c:	c7 45 fc 00 00 00 00 	movl   $0x0,-0x4(%rbp)
  401213:	eb 26                	jmp    40123b <phase_5+0x5c>
  401215:	8b 45 fc             	mov    -0x4(%rbp),%eax
  401218:	48 63 d0             	movslq %eax,%rdx
  40121b:	48 8b 45 e8          	mov    -0x18(%rbp),%rax
  40121f:	48 01 d0             	add    %rdx,%rax
  401222:	0f b6 00             	movzbl (%rax),%eax
  401225:	0f be c0             	movsbl %al,%eax
  401228:	83 e0 0f             	and    $0xf,%eax
  40122b:	48 98                	cltq   
  40122d:	8b 04 85 80 38 60 00 	mov    0x603880(,%rax,4),%eax
  401234:	01 45 f8             	add    %eax,-0x8(%rbp)
  401237:	83 45 fc 01          	addl   $0x1,-0x4(%rbp)
  40123b:	83 7d fc 05          	cmpl   $0x5,-0x4(%rbp)
  40123f:	7e d4                	jle    401215 <phase_5+0x36>
  401241:	83 7d f8 36          	cmpl   $0x36,-0x8(%rbp)
  401245:	74 05                	je     40124c <phase_5+0x6d>
  401247:	e8 44 06 00 00       	callq  401890 <explode_bomb>
  40124c:	c9                   	leaveq 
  40124d:	c3                   	retq   

000000000040124e <phase_6>:
phase_6():
  40124e:	55                   	push   %rbp
  40124f:	48 89 e5             	mov    %rsp,%rbp
  401252:	48 83 ec 70          	sub    $0x70,%rsp
  401256:	48 89 7d 98          	mov    %rdi,-0x68(%rbp)
  40125a:	48 c7 45 e8 60 36 60 	movq   $0x603660,-0x18(%rbp)
  401261:	00 
  401262:	48 8d 55 d0          	lea    -0x30(%rbp),%rdx
  401266:	48 8b 45 98          	mov    -0x68(%rbp),%rax
  40126a:	48 89 d6             	mov    %rdx,%rsi
  40126d:	48 89 c7             	mov    %rax,%rdi
  401270:	e8 c6 02 00 00       	callq  40153b <read_six_numbers>
  401275:	c7 45 f4 00 00 00 00 	movl   $0x0,-0xc(%rbp)
  40127c:	eb 54                	jmp    4012d2 <phase_6+0x84>
  40127e:	8b 45 f4             	mov    -0xc(%rbp),%eax
  401281:	48 98                	cltq   
  401283:	8b 44 85 d0          	mov    -0x30(%rbp,%rax,4),%eax
  401287:	85 c0                	test   %eax,%eax
  401289:	7e 0e                	jle    401299 <phase_6+0x4b>
  40128b:	8b 45 f4             	mov    -0xc(%rbp),%eax
  40128e:	48 98                	cltq   
  401290:	8b 44 85 d0          	mov    -0x30(%rbp,%rax,4),%eax
  401294:	83 f8 06             	cmp    $0x6,%eax
  401297:	7e 05                	jle    40129e <phase_6+0x50>
  401299:	e8 f2 05 00 00       	callq  401890 <explode_bomb>
  40129e:	8b 45 f4             	mov    -0xc(%rbp),%eax
  4012a1:	83 c0 01             	add    $0x1,%eax
  4012a4:	89 45 f0             	mov    %eax,-0x10(%rbp)
  4012a7:	eb 1f                	jmp    4012c8 <phase_6+0x7a>
  4012a9:	8b 45 f4             	mov    -0xc(%rbp),%eax
  4012ac:	48 98                	cltq   
  4012ae:	8b 54 85 d0          	mov    -0x30(%rbp,%rax,4),%edx
  4012b2:	8b 45 f0             	mov    -0x10(%rbp),%eax
  4012b5:	48 98                	cltq   
  4012b7:	8b 44 85 d0          	mov    -0x30(%rbp,%rax,4),%eax
  4012bb:	39 c2                	cmp    %eax,%edx
  4012bd:	75 05                	jne    4012c4 <phase_6+0x76>
  4012bf:	e8 cc 05 00 00       	callq  401890 <explode_bomb>
  4012c4:	83 45 f0 01          	addl   $0x1,-0x10(%rbp)
  4012c8:	83 7d f0 05          	cmpl   $0x5,-0x10(%rbp)
  4012cc:	7e db                	jle    4012a9 <phase_6+0x5b>
  4012ce:	83 45 f4 01          	addl   $0x1,-0xc(%rbp)
  4012d2:	83 7d f4 05          	cmpl   $0x5,-0xc(%rbp)
  4012d6:	7e a6                	jle    40127e <phase_6+0x30>
  4012d8:	c7 45 f4 00 00 00 00 	movl   $0x0,-0xc(%rbp)
  4012df:	eb 1d                	jmp    4012fe <phase_6+0xb0>
  4012e1:	8b 45 f4             	mov    -0xc(%rbp),%eax
  4012e4:	48 98                	cltq   
  4012e6:	8b 44 85 d0          	mov    -0x30(%rbp,%rax,4),%eax
  4012ea:	ba 07 00 00 00       	mov    $0x7,%edx
  4012ef:	29 c2                	sub    %eax,%edx
  4012f1:	8b 45 f4             	mov    -0xc(%rbp),%eax
  4012f4:	48 98                	cltq   
  4012f6:	89 54 85 d0          	mov    %edx,-0x30(%rbp,%rax,4)
  4012fa:	83 45 f4 01          	addl   $0x1,-0xc(%rbp)
  4012fe:	83 7d f4 05          	cmpl   $0x5,-0xc(%rbp)
  401302:	7e dd                	jle    4012e1 <phase_6+0x93>
  401304:	c7 45 f4 00 00 00 00 	movl   $0x0,-0xc(%rbp)
  40130b:	eb 41                	jmp    40134e <phase_6+0x100>
  40130d:	48 8b 45 e8          	mov    -0x18(%rbp),%rax
  401311:	48 89 45 f8          	mov    %rax,-0x8(%rbp)
  401315:	c7 45 f0 01 00 00 00 	movl   $0x1,-0x10(%rbp)
  40131c:	eb 10                	jmp    40132e <phase_6+0xe0>
  40131e:	48 8b 45 f8          	mov    -0x8(%rbp),%rax
  401322:	48 8b 40 08          	mov    0x8(%rax),%rax
  401326:	48 89 45 f8          	mov    %rax,-0x8(%rbp)
  40132a:	83 45 f0 01          	addl   $0x1,-0x10(%rbp)
  40132e:	8b 45 f4             	mov    -0xc(%rbp),%eax
  401331:	48 98                	cltq   
  401333:	8b 44 85 d0          	mov    -0x30(%rbp,%rax,4),%eax
  401337:	3b 45 f0             	cmp    -0x10(%rbp),%eax
  40133a:	7f e2                	jg     40131e <phase_6+0xd0>
  40133c:	8b 45 f4             	mov    -0xc(%rbp),%eax
  40133f:	48 98                	cltq   
  401341:	48 8b 55 f8          	mov    -0x8(%rbp),%rdx
  401345:	48 89 54 c5 a0       	mov    %rdx,-0x60(%rbp,%rax,8)
  40134a:	83 45 f4 01          	addl   $0x1,-0xc(%rbp)
  40134e:	83 7d f4 05          	cmpl   $0x5,-0xc(%rbp)
  401352:	7e b9                	jle    40130d <phase_6+0xbf>
  401354:	48 8b 45 a0          	mov    -0x60(%rbp),%rax
  401358:	48 89 45 e8          	mov    %rax,-0x18(%rbp)
  40135c:	48 8b 45 e8          	mov    -0x18(%rbp),%rax
  401360:	48 89 45 f8          	mov    %rax,-0x8(%rbp)
  401364:	c7 45 f4 01 00 00 00 	movl   $0x1,-0xc(%rbp)
  40136b:	eb 22                	jmp    40138f <phase_6+0x141>
  40136d:	8b 45 f4             	mov    -0xc(%rbp),%eax
  401370:	48 98                	cltq   
  401372:	48 8b 54 c5 a0       	mov    -0x60(%rbp,%rax,8),%rdx
  401377:	48 8b 45 f8          	mov    -0x8(%rbp),%rax
  40137b:	48 89 50 08          	mov    %rdx,0x8(%rax)
  40137f:	48 8b 45 f8          	mov    -0x8(%rbp),%rax
  401383:	48 8b 40 08          	mov    0x8(%rax),%rax
  401387:	48 89 45 f8          	mov    %rax,-0x8(%rbp)
  40138b:	83 45 f4 01          	addl   $0x1,-0xc(%rbp)
  40138f:	83 7d f4 05          	cmpl   $0x5,-0xc(%rbp)
  401393:	7e d8                	jle    40136d <phase_6+0x11f>
  401395:	48 8b 45 f8          	mov    -0x8(%rbp),%rax
  401399:	48 c7 40 08 00 00 00 	movq   $0x0,0x8(%rax)
  4013a0:	00 
  4013a1:	48 8b 45 e8          	mov    -0x18(%rbp),%rax
  4013a5:	48 89 45 f8          	mov    %rax,-0x8(%rbp)
  4013a9:	c7 45 f4 00 00 00 00 	movl   $0x0,-0xc(%rbp)
  4013b0:	eb 29                	jmp    4013db <phase_6+0x18d>
  4013b2:	48 8b 45 f8          	mov    -0x8(%rbp),%rax
  4013b6:	8b 10                	mov    (%rax),%edx
  4013b8:	48 8b 45 f8          	mov    -0x8(%rbp),%rax
  4013bc:	48 8b 40 08          	mov    0x8(%rax),%rax
  4013c0:	8b 00                	mov    (%rax),%eax
  4013c2:	39 c2                	cmp    %eax,%edx
  4013c4:	7d 05                	jge    4013cb <phase_6+0x17d>
  4013c6:	e8 c5 04 00 00       	callq  401890 <explode_bomb>
  4013cb:	48 8b 45 f8          	mov    -0x8(%rbp),%rax
  4013cf:	48 8b 40 08          	mov    0x8(%rax),%rax
  4013d3:	48 89 45 f8          	mov    %rax,-0x8(%rbp)
  4013d7:	83 45 f4 01          	addl   $0x1,-0xc(%rbp)
  4013db:	83 7d f4 04          	cmpl   $0x4,-0xc(%rbp)
  4013df:	7e d1                	jle    4013b2 <phase_6+0x164>
  4013e1:	c9                   	leaveq 
  4013e2:	c3                   	retq   

00000000004013e3 <fun7>:
fun7():
  4013e3:	55                   	push   %rbp
  4013e4:	48 89 e5             	mov    %rsp,%rbp
  4013e7:	48 83 ec 10          	sub    $0x10,%rsp
  4013eb:	48 89 7d f8          	mov    %rdi,-0x8(%rbp)
  4013ef:	89 75 f4             	mov    %esi,-0xc(%rbp)
  4013f2:	48 83 7d f8 00       	cmpq   $0x0,-0x8(%rbp)
  4013f7:	75 07                	jne    401400 <fun7+0x1d>
  4013f9:	b8 ff ff ff ff       	mov    $0xffffffff,%eax
  4013fe:	eb 50                	jmp    401450 <fun7+0x6d>
  401400:	48 8b 45 f8          	mov    -0x8(%rbp),%rax
  401404:	8b 00                	mov    (%rax),%eax
  401406:	3b 45 f4             	cmp    -0xc(%rbp),%eax
  401409:	7e 19                	jle    401424 <fun7+0x41>
  40140b:	48 8b 45 f8          	mov    -0x8(%rbp),%rax
  40140f:	48 8b 40 08          	mov    0x8(%rax),%rax
  401413:	8b 55 f4             	mov    -0xc(%rbp),%edx
  401416:	89 d6                	mov    %edx,%esi
  401418:	48 89 c7             	mov    %rax,%rdi
  40141b:	e8 c3 ff ff ff       	callq  4013e3 <fun7>
  401420:	01 c0                	add    %eax,%eax
  401422:	eb 2c                	jmp    401450 <fun7+0x6d>
  401424:	48 8b 45 f8          	mov    -0x8(%rbp),%rax
  401428:	8b 00                	mov    (%rax),%eax
  40142a:	3b 45 f4             	cmp    -0xc(%rbp),%eax
  40142d:	75 07                	jne    401436 <fun7+0x53>
  40142f:	b8 00 00 00 00       	mov    $0x0,%eax
  401434:	eb 1a                	jmp    401450 <fun7+0x6d>
  401436:	48 8b 45 f8          	mov    -0x8(%rbp),%rax
  40143a:	48 8b 40 10          	mov    0x10(%rax),%rax
  40143e:	8b 55 f4             	mov    -0xc(%rbp),%edx
  401441:	89 d6                	mov    %edx,%esi
  401443:	48 89 c7             	mov    %rax,%rdi
  401446:	e8 98 ff ff ff       	callq  4013e3 <fun7>
  40144b:	01 c0                	add    %eax,%eax
  40144d:	83 c0 01             	add    $0x1,%eax
  401450:	c9                   	leaveq 
  401451:	c3                   	retq   

0000000000401452 <secret_phase>:
secret_phase():
  401452:	55                   	push   %rbp
  401453:	48 89 e5             	mov    %rsp,%rbp
  401456:	48 83 ec 10          	sub    $0x10,%rsp
  40145a:	e8 cb 02 00 00       	callq  40172a <read_line>
  40145f:	48 89 45 f8          	mov    %rax,-0x8(%rbp)
  401463:	48 8b 45 f8          	mov    -0x8(%rbp),%rax
  401467:	48 89 c7             	mov    %rax,%rdi
  40146a:	e8 41 f8 ff ff       	callq  400cb0 <atoi@plt>
  40146f:	89 45 f4             	mov    %eax,-0xc(%rbp)
  401472:	83 7d f4 00          	cmpl   $0x0,-0xc(%rbp)
  401476:	7e 09                	jle    401481 <secret_phase+0x2f>
  401478:	81 7d f4 e9 03 00 00 	cmpl   $0x3e9,-0xc(%rbp)
  40147f:	7e 05                	jle    401486 <secret_phase+0x34>
  401481:	e8 0a 04 00 00       	callq  401890 <explode_bomb>
  401486:	8b 45 f4             	mov    -0xc(%rbp),%eax
  401489:	89 c6                	mov    %eax,%esi
  40148b:	bf 30 38 60 00       	mov    $0x603830,%edi
  401490:	e8 4e ff ff ff       	callq  4013e3 <fun7>
  401495:	89 45 f0             	mov    %eax,-0x10(%rbp)
  401498:	83 7d f0 07          	cmpl   $0x7,-0x10(%rbp)
  40149c:	74 05                	je     4014a3 <secret_phase+0x51>
  40149e:	e8 ed 03 00 00       	callq  401890 <explode_bomb>
  4014a3:	bf 78 29 40 00       	mov    $0x402978,%edi
  4014a8:	e8 b3 f6 ff ff       	callq  400b60 <puts@plt>
  4014ad:	e8 00 04 00 00       	callq  4018b2 <phase_defused>
  4014b2:	c9                   	leaveq 
  4014b3:	c3                   	retq   

00000000004014b4 <sig_handler>:
sig_handler():
  4014b4:	55                   	push   %rbp
  4014b5:	48 89 e5             	mov    %rsp,%rbp
  4014b8:	48 83 ec 10          	sub    $0x10,%rsp
  4014bc:	89 7d fc             	mov    %edi,-0x4(%rbp)
  4014bf:	bf 00 2a 40 00       	mov    $0x402a00,%edi
  4014c4:	e8 97 f6 ff ff       	callq  400b60 <puts@plt>
  4014c9:	bf 03 00 00 00       	mov    $0x3,%edi
  4014ce:	e8 1d f8 ff ff       	callq  400cf0 <sleep@plt>
  4014d3:	bf 38 2a 40 00       	mov    $0x402a38,%edi
  4014d8:	b8 00 00 00 00       	mov    $0x0,%eax
  4014dd:	e8 be f6 ff ff       	callq  400ba0 <printf@plt>
  4014e2:	48 8b 05 d7 27 20 00 	mov    0x2027d7(%rip),%rax        # 603cc0 <__TMC_END__>
  4014e9:	48 89 c7             	mov    %rax,%rdi
  4014ec:	e8 6f f7 ff ff       	callq  400c60 <fflush@plt>
  4014f1:	bf 01 00 00 00       	mov    $0x1,%edi
  4014f6:	e8 f5 f7 ff ff       	callq  400cf0 <sleep@plt>
  4014fb:	bf 40 2a 40 00       	mov    $0x402a40,%edi
  401500:	e8 5b f6 ff ff       	callq  400b60 <puts@plt>
  401505:	bf 10 00 00 00       	mov    $0x10,%edi
  40150a:	e8 c1 f7 ff ff       	callq  400cd0 <exit@plt>

000000000040150f <invalid_phase>:
invalid_phase():
  40150f:	55                   	push   %rbp
  401510:	48 89 e5             	mov    %rsp,%rbp
  401513:	48 83 ec 10          	sub    $0x10,%rsp
  401517:	48 89 7d f8          	mov    %rdi,-0x8(%rbp)
  40151b:	48 8b 45 f8          	mov    -0x8(%rbp),%rax
  40151f:	48 89 c6             	mov    %rax,%rsi
  401522:	bf 48 2a 40 00       	mov    $0x402a48,%edi
  401527:	b8 00 00 00 00       	mov    $0x0,%eax
  40152c:	e8 6f f6 ff ff       	callq  400ba0 <printf@plt>
  401531:	bf 08 00 00 00       	mov    $0x8,%edi
  401536:	e8 95 f7 ff ff       	callq  400cd0 <exit@plt>

000000000040153b <read_six_numbers>:
read_six_numbers():
  40153b:	55                   	push   %rbp
  40153c:	48 89 e5             	mov    %rsp,%rbp
  40153f:	48 83 ec 20          	sub    $0x20,%rsp
  401543:	48 89 7d e8          	mov    %rdi,-0x18(%rbp)
  401547:	48 89 75 e0          	mov    %rsi,-0x20(%rbp)
  40154b:	48 8b 45 e0          	mov    -0x20(%rbp),%rax
  40154f:	48 8d 78 14          	lea    0x14(%rax),%rdi
  401553:	48 8b 45 e0          	mov    -0x20(%rbp),%rax
  401557:	48 8d 70 10          	lea    0x10(%rax),%rsi
  40155b:	48 8b 45 e0          	mov    -0x20(%rbp),%rax
  40155f:	4c 8d 48 0c          	lea    0xc(%rax),%r9
  401563:	48 8b 45 e0          	mov    -0x20(%rbp),%rax
  401567:	4c 8d 40 08          	lea    0x8(%rax),%r8
  40156b:	48 8b 45 e0          	mov    -0x20(%rbp),%rax
  40156f:	48 8d 48 04          	lea    0x4(%rax),%rcx
  401573:	48 8b 55 e0          	mov    -0x20(%rbp),%rdx
  401577:	48 8b 45 e8          	mov    -0x18(%rbp),%rax
  40157b:	57                   	push   %rdi
  40157c:	56                   	push   %rsi
  40157d:	be 59 2a 40 00       	mov    $0x402a59,%esi
  401582:	48 89 c7             	mov    %rax,%rdi
  401585:	b8 00 00 00 00       	mov    $0x0,%eax
  40158a:	e8 e1 f6 ff ff       	callq  400c70 <__isoc99_sscanf@plt>
  40158f:	48 83 c4 10          	add    $0x10,%rsp
  401593:	89 45 fc             	mov    %eax,-0x4(%rbp)
  401596:	83 7d fc 05          	cmpl   $0x5,-0x4(%rbp)
  40159a:	7f 05                	jg     4015a1 <read_six_numbers+0x66>
  40159c:	e8 ef 02 00 00       	callq  401890 <explode_bomb>
  4015a1:	c9                   	leaveq 
  4015a2:	c3                   	retq   

00000000004015a3 <string_length>:
string_length():
  4015a3:	55                   	push   %rbp
  4015a4:	48 89 e5             	mov    %rsp,%rbp
  4015a7:	48 89 7d e8          	mov    %rdi,-0x18(%rbp)
  4015ab:	48 8b 45 e8          	mov    -0x18(%rbp),%rax
  4015af:	48 89 45 f0          	mov    %rax,-0x10(%rbp)
  4015b3:	c7 45 fc 00 00 00 00 	movl   $0x0,-0x4(%rbp)
  4015ba:	eb 09                	jmp    4015c5 <string_length+0x22>
  4015bc:	48 83 45 f0 01       	addq   $0x1,-0x10(%rbp)
  4015c1:	83 45 fc 01          	addl   $0x1,-0x4(%rbp)
  4015c5:	48 8b 45 f0          	mov    -0x10(%rbp),%rax
  4015c9:	0f b6 00             	movzbl (%rax),%eax
  4015cc:	84 c0                	test   %al,%al
  4015ce:	75 ec                	jne    4015bc <string_length+0x19>
  4015d0:	8b 45 fc             	mov    -0x4(%rbp),%eax
  4015d3:	5d                   	pop    %rbp
  4015d4:	c3                   	retq   

00000000004015d5 <strings_not_equal>:
strings_not_equal():
  4015d5:	55                   	push   %rbp
  4015d6:	48 89 e5             	mov    %rsp,%rbp
  4015d9:	53               3999    	push   %rbx
  4015da:	48 83 ec 20          	sub    $0x20,%rsp
  4015de:	48 89 7d e0          	mov    %rdi,-0x20(%rbp)
  4015e2:	48 89 75 d8          	mov    %rsi,-0x28(%rbp)
  4015e6:	48 8b 45 e0          	mov    -0x20(%rbp),%rax
  4015ea:	48 89 c7             	mov    %rax,%rdi
  4015ed:	e8 b1 ff ff ff       	callq  4015a3 <string_length>
  4015f2:	89 c3                	mov    %eax,%ebx
  4015f4:	48 8b 45 d8          	mov    -0x28(%rbp),%rax
  4015f8:	48 89 c7             	mov    %rax,%rdi
  4015fb:	e8 a3 ff ff ff       	callq  4015a3 <string_length>
  401600:	39 c3                	cmp    %eax,%ebx
  401602:	74 07                	je     40160b <strings_not_equal+0x36>
  401604:	b8 01 00 00 00       	mov    $0x1,%eax
  401609:	eb 45                	jmp    401650 <strings_not_equal+0x7b>
  40160b:	48 8b 45 e0          	mov    -0x20(%rbp),%rax
  40160f:	48 89 45 f0          	mov    %rax,-0x10(%rbp)
  401613:	48 8b 45 d8          	mov    -0x28(%rbp),%rax
  401617:	48 89 45 e8          	mov    %rax,-0x18(%rbp)
  40161b:	eb 23                	jmp    401640 <strings_not_equal+0x6b>
  40161d:	48 8b 45 f0          	mov    -0x10(%rbp),%rax
  401621:	0f b6 10             	movzbl (%rax),%edx
  401624:	48 8b 45 e8          	mov    -0x18(%rbp),%rax
  401628:	0f b6 00             	movzbl (%rax),%eax
  40162b:	38 c2                	cmp    %al,%dl
  40162d:	74 07                	je     401636 <strings_not_equal+0x61>
  40162f:	b8 01 00 00 00       	mov    $0x1,%eax
  401634:	eb 1a                	jmp    401650 <strings_not_equal+0x7b>
  401636:	48 83 45 f0 01       	addq   $0x1,-0x10(%rbp)
  40163b:	48 83 45 e8 01       	addq   $0x1,-0x18(%rbp)
  401640:	48 8b 45 f0          	mov    -0x10(%rbp),%rax
  401644:	0f b6 00             	movzbl (%rax),%eax
  401647:	84 c0                	test   %al,%al
  401649:	75 d2                	jne    40161d <strings_not_equal+0x48>
  40164b:	b8 00 00 00 00       	mov    $0x0,%eax
  401650:	48 83 c4 20          	add    $0x20,%rsp
  401654:	5b                   	pop    %rbx
  401655:	5d                   	pop    %rbp
  401656:	c3                   	retq   

0000000000401657 <initialize_bomb>:
initialize_bomb():
  401657:	55                   	push   %rbp
  401658:	48 89 e5             	mov    %rsp,%rbp
  40165b:	be b4 14 40 00       	mov    $0x4014b4,%esi
  401660:	bf 02 00 00 00       	mov    $0x2,%edi
  401665:	e8 a6 f5 ff ff       	callq  400c10 <signal@plt>
  40166a:	5d                   	pop    %rbp
  40166b:	c3                   	retq   

000000000040166c <initialize_bomb_solve>:
initialize_bomb_solve():
  40166c:	55                   	push   %rbp
  40166d:	48 89 e5             	mov    %rsp,%rbp
  401670:	5d                   	pop    %rbp
  401671:	c3                   	retq   

0000000000401672 <blank_line>:
blank_line():
  401672:	55                   	push   %rbp
  401673:	48 89 e5             	mov    %rsp,%rbp
  401676:	48 83 ec 10          	sub    $0x10,%rsp
  40167a:	48 89 7d f8          	mov    %rdi,-0x8(%rbp)
  40167e:	eb 37                	jmp    4016b7 <blank_line+0x45>
  401680:	e8 7b f6 ff ff       	callq  400d00 <__ctype_b_loc@plt>
  401685:	48 8b 08             	mov    (%rax),%rcx
  401688:	48 8b 45 f8          	mov    -0x8(%rbp),%rax
  40168c:	48 8d 50 01          	lea    0x1(%rax),%rdx
  401690:	48 89 55 f8          	mov    %rdx,-0x8(%rbp)
  401694:	0f b6 00             	movzbl (%rax),%eax
  401697:	48 0f be c0          	movsbq %al,%rax
  40169b:	48 01 c0             	add    %rax,%rax
  40169e:	48 01 c8             	add    %rcx,%rax
  4016a1:	0f b7 00             	movzwl (%rax),%eax
  4016a4:	0f b7 c0             	movzwl %ax,%eax
  4016a7:	25 00 20 00 00       	and    $0x2000,%eax
  4016ac:	85 c0                	test   %eax,%eax
  4016ae:	75 07                	jne    4016b7 <blank_line+0x45>
  4016b0:	b8 00 00 00 00       	mov    $0x0,%eax
  4016b5:	eb 10                	jmp    4016c7 <blank_line+0x55>
  4016b7:	48 8b 45 f8          	mov    -0x8(%rbp),%rax
  4016bb:	0f b6 00             	movzbl (%rax),%eax
  4016be:	84 c0                	test   %al,%al
  4016c0:	75 be                	jne    401680 <blank_line+0xe>
  4016c2:	b8 01 00 00 00       	mov    $0x1,%eax
  4016c7:	c9                   	leaveq 
  4016c8:	c3                   	retq   

00000000004016c9 <skip>:
skip():
  4016c9:	55                   	push   %rbp
  4016ca:	48 89 e5             	mov    %rsp,%rbp
  4016cd:	48 83 ec 10          	sub    $0x10,%rsp
  4016d1:	48 8b 0d 08 26 20 00 	mov    0x202608(%rip),%rcx        # 603ce0 <infile>
  4016d8:	8b 05 fe 25 20 00    	mov    0x2025fe(%rip),%eax        # 603cdc <num_input_strings>
  4016de:	48 63 d0             	movslq %eax,%rdx
  4016e1:	48 89 d0             	mov    %rdx,%rax
  4016e4:	48 c1 e0 02          	shl    $0x2,%rax
  4016e8:	48 01 d0             	add    %rdx,%rax
  4016eb:	48 c1 e0 04          	shl    $0x4,%rax
  4016ef:	48 05 00 3d 60 00    	add    $0x603d00,%rax
  4016f5:	48 89 ca             	mov    %rcx,%rdx
  4016f8:	be 50 00 00 00       	mov    $0x50,%esi
  4016fd:	48 89 c7             	mov    %rax,%rdi
  401700:	e8 eb f4 ff ff       	callq  400bf0 <fgets@plt>
  401705:	48 89 45 f8          	mov    %rax,-0x8(%rbp)
  401709:	48 83 7d f8 00       	cmpq   $0x0,-0x8(%rbp)
  40170e:	74 10                	je     401720 <skip+0x57>
  401710:	48 8b 45 f8          	mov    -0x8(%rbp),%rax
  401714:	48 89 c7             	mov    %rax,%rdi
  401717:	e8 56 ff ff ff       	callq  401672 <blank_line>
  40171c:	85 c0                	test   %eax,%eax
  40171e:	75 06                	jne    401726 <skip+0x5d>
  401720:	48 8b 45 f8          	mov    -0x8(%rbp),%rax
  401724:	eb 02                	jmp    401728 <skip+0x5f>
  401726:	eb a9                	jmp    4016d1 <skip+0x8>
  401728:	c9                   	leaveq 
  401729:	c3                   	retq   

000000000040172a <read_line>:
read_line():
  40172a:	55                   	push   %rbp
  40172b:	48 89 e5             	mov    %rsp,%rbp
  40172e:	48 83 ec 10          	sub    $0x10,%rsp
  401732:	b8 00 00 00 00       	mov    $0x0,%eax
  401737:	e8 8d ff ff ff       	callq  4016c9 <skip>
  40173c:	48 89 45 f8          	mov    %rax,-0x8(%rbp)
  401740:	48 83 7d f8 00       	cmpq   $0x0,-0x8(%rbp)
  401745:	75 77                	jne    4017be <read_line+0x94>
  401747:	48 8b 15 92 25 20 00 	mov    0x202592(%rip),%rdx        # 603ce0 <infile>
  40174e:	48 8b 05 73 25 20 00 	mov    0x202573(%rip),%rax        # 603cc8 <stdin@@GLIBC_2.2.5>
  401755:	48 39 c2             	cmp    %rax,%rdx
  401758:	75 14                	jne    40176e <read_line+0x44>
  40175a:	bf 6b 2a 40 00       	mov    $0x402a6b,%edi
  40175f:	e8 fc f3 ff ff       	callq  400b60 <puts@plt>
  401764:	bf 08 00 00 00       	mov    $0x8,%edi
  401769:	e8 62 f5 ff ff       	callq  400cd0 <exit@plt>
  40176e:	bf 89 2a 40 00       	mov    $0x402a89,%edi
  401773:	e8 b8 f3 ff ff       	callq  400b30 <getenv@plt>
  401778:	48 85 c0             	test   %rax,%rax
  40177b:	74 0a                	je     401787 <read_line+0x5d>
  40177d:	bf 00 00 00 00       	mov    $0x0,%edi
  401782:	e8 49 f5 ff ff       	callq  400cd0 <exit@plt>
  401787:	48 8b 05 3a 25 20 00 	mov    0x20253a(%rip),%rax        # 603cc8 <stdin@@GLIBC_2.2.5>
  40178e:	48 89 05 4b 25 20 00 	mov    %rax,0x20254b(%rip)        # 603ce0 <infile>
  401795:	b8 00 00 00 00       	mov    $0x0,%eax
  40179a:	e8 2a ff ff ff       	callq  4016c9 <skip>
  40179f:	48 89 45 f8          	mov    %rax,-0x8(%rbp)
  4017a3:	48 83 7d f8 00       	cmpq   $0x0,-0x8(%rbp)
  4017a8:	75 14                	jne    4017be <read_line+0x94>
  4017aa:	bf 6b 2a 40 00       	mov    $0x402a6b,%edi
  4017af:	e8 ac f3 ff ff       	callq  400b60 <puts@plt>
  4017b4:	bf 00 00 00 00       	mov    $0x0,%edi
  4017b9:	e8 12 f5 ff ff       	callq  400cd0 <exit@plt>
  4017be:	8b 05 18 25 20 00    	mov    0x202518(%rip),%eax        # 603cdc <num_input_strings>
  4017c4:	48 63 d0             	movslq %eax,%rdx
  4017c7:	48 89 d0             	mov    %rdx,%rax
  4017ca:	48 c1 e0 02          	shl    $0x2,%rax
  4017ce:	48 01 d0             	add    %rdx,%rax
  4017d1:	48 c1 e0 04          	shl    $0x4,%rax
  4017d5:	48 05 00 3d 60 00    	add    $0x603d00,%rax
  4017db:	48 89 c7             	mov    %rax,%rdi
  4017de:	e8 9d f3 ff ff       	callq  400b80 <strlen@plt>
  4017e3:	89 45 f4             	mov    %eax,-0xc(%rbp)
  4017e6:	83 7d f4 4e          	cmpl   $0x4e,-0xc(%rbp)
  4017ea:	7e 50                	jle    40183c <read_line+0x112>
  4017ec:	bf 94 2a 40 00       	mov    $0x402a94,%edi
  4017f1:	e8 6a f3 ff ff       	callq  400b60 <puts@plt>
  4017f6:	8b 05 e0 24 20 00    	mov    0x2024e0(%rip),%eax        # 603cdc <num_input_strings>
  4017fc:	8d 50 01             	lea    0x1(%rax),%edx
  4017ff:	89 15 d7 24 20 00    	mov    %edx,0x2024d7(%rip)        # 603cdc <num_input_strings>
  401805:	48 63 d0             	movslq %eax,%rdx
  401808:	48 89 d0             	mov    %rdx,%rax
  40180b:	48 c1 e0 02          	shl    $0x2,%rax
  40180f:	48 01 d0             	add    %rdx,%rax
  401812:	48 c1 e0 04          	shl    $0x4,%rax
  401816:	48 05 00 3d 60 00    	add    $0x603d00,%rax
  40181c:	48 be 2a 2a 2a 74 72 	movabs $0x636e7572742a2a2a,%rsi
  401823:	75 6e 63 
  401826:	48 89 30             	mov    %rsi,(%rax)
  401829:	48 b9 61 74 65 64 2a 	movabs $0x2a2a2a64657461,%rcx
  401830:	2a 2a 00 
  401833:	48 89 48 08          	mov    %rcx,0x8(%rax)
  401837:	e8 54 00 00 00       	callq  401890 <explode_bomb>
  40183c:	8b 05 9a 24 20 00    	mov    0x20249a(%rip),%eax        # 603cdc <num_input_strings>
  401842:	8b 55 f4             	mov    -0xc(%rbp),%edx
  401845:	83 ea 01             	sub    $0x1,%edx
  401848:	48 63 ca             	movslq %edx,%rcx
  40184b:	48 63 d0             	movslq %eax,%rdx
  40184e:	48 89 d0             	mov    %rdx,%rax
  401851:	48 c1 e0 02          	shl    $0x2,%rax
  401855:	48 01 d0             	add    %rdx,%rax
  401858:	48 c1 e0 04          	shl    $0x4,%rax
  40185c:	48 01 c8             	add    %rcx,%rax
  40185f:	48 05 00 3d 60 00    	add    $0x603d00,%rax
  401865:	c6 00 00             	movb   $0x0,(%rax)
  401868:	8b 05 6e 24 20 00    	mov    0x20246e(%rip),%eax        # 603cdc <num_input_strings>
  40186e:	8d 50 01             	lea    0x1(%rax),%edx
  401871:	89 15 65 24 20 00    	mov    %edx,0x202465(%rip)        # 603cdc <num_input_strings>
  401877:	48 63 d0             	movslq %eax,%rdx
  40187a:	48 89 d0             	mov    %rdx,%rax
  40187d:	48 c1 e0 02          	shl    $0x2,%rax
  401881:	48 01 d0             	add    %rdx,%rax
  401884:	48 c1 e0 04          	shl    $0x4,%rax
  401888:	48 05 00 3d 60 00    	add    $0x603d00,%rax
  40188e:	c9                   	leaveq 
  40188f:	c3                   	retq   

0000000000401890 <explode_bomb>:
explode_bomb():
  401890:	55                   	push   %rbp
  401891:	48 89 e5             	mov    %rsp,%rbp
  401894:	bf af 2a 40 00       	mov    $0x402aaf,%edi
  401899:	e8 c2 f2 ff ff       	callq  400b60 <puts@plt>
  40189e:	bf b8 2a 40 00       	mov    $0x402ab8,%edi
  4018a3:	e8 b8 f2 ff ff       	callq  400b60 <puts@plt>
  4018a8:	bf 08 00 00 00       	mov    $0x8,%edi
  4018ad:	e8 1e f4 ff ff       	callq  400cd0 <exit@plt>

00000000004018b2 <phase_defused>:
phase_defused():
  4018b2:	55                   	push   %rbp
  4018b3:	48 89 e5             	mov    %rsp,%rbp
  4018b6:	48 83 ec 70          	sub    $0x70,%rsp
  4018ba:	8b 05 1c 24 20 00    	mov    0x20241c(%rip),%eax        # 603cdc <num_input_strings>
  4018c0:	83 f8 06             	cmp    $0x6,%eax
  4018c3:	75 6f                	jne    401934 <phase_defused+0x82>
  4018c5:	48 8d 4d a0          	lea    -0x60(%rbp),%rcx
  4018c9:	48 8d 55 98          	lea    -0x68(%rbp),%rdx
  4018cd:	48 8d 45 9c          	lea    -0x64(%rbp),%rax
  4018d1:	49 89 c8             	mov    %rcx,%r8
  4018d4:	48 89 d1             	mov    %rdx,%rcx
  4018d7:	48 89 c2             	mov    %rax,%rdx
  4018da:	be cf 2a 40 00       	mov    $0x402acf,%esi
  4018df:	bf f0 3d 60 00       	mov    $0x603df0,%edi
  4018e4:	b8 00 00 00 00       	mov    $0x0,%eax
  4018e9:	e8 82 f3 ff ff       	callq  400c70 <__isoc99_sscanf@plt>
  4018ee:	89 45 fc             	mov    %eax,-0x4(%rbp)
  4018f1:	83 7d fc 03          	cmpl   $0x3,-0x4(%rbp)
  4018f5:	75 33                	jne    40192a <phase_defused+0x78>
  4018f7:	48 8d 45 a0          	lea    -0x60(%rbp),%rax
  4018fb:	be d8 2a 40 00       	mov    $0x402ad8,%esi
  401900:	48 89 c7             	mov    %rax,%rdi
  401903:	e8 cd fc ff ff       	callq  4015d5 <strings_not_equal>
  401908:	85 c0                	test   %eax,%eax
  40190a:	75 1e                	jne    40192a <phase_defused+0x78>
  40190c:	bf e0 2a 40 00       	mov    $0x402ae0,%edi
  401911:	e8 4a f2 ff ff       	callq  400b60 <puts@plt>
  401916:	bf 08 2b 40 00       	mov    $0x402b08,%edi
  40191b:	e8 40 f2 ff ff       	callq  400b60 <puts@plt>
  401920:	b8 00 00 00 00       	mov    $0x0,%eax
  401925:	e8 28 fb ff ff       	callq  401452 <secret_phase>
  40192a:	bf 40 2b 40 00       	mov    $0x402b40,%edi
  40192f:	e8 2c f2 ff ff       	callq  400b60 <puts@plt>
  401934:	c9                   	leaveq 
  401935:	c3                   	retq   

0000000000401936 <sigalrm_handler>:
sigalrm_handler():
  401936:	55                   	push   %rbp
  401937:	48 89 e5             	mov    %rsp,%rbp
  40193a:	48 83 ec 10          	sub    $0x10,%rsp
  40193e:	89 7d fc             	mov    %edi,-0x4(%rbp)
  401941:	48 8b 05 88 23 20 00 	mov    0x202388(%rip),%rax        # 603cd0 <stderr@@GLIBC_2.2.5>
  401948:	ba 00 00 00 00       	mov    $0x0,%edx
  40194d:	be 70 2b 40 00       	mov    $0x402b70,%esi
  401952:	48 89 c7             	mov    %rax,%rdi
  401955:	b8 00 00 00 00       	mov    $0x0,%eax
  40195a:	e8 d1 f2 ff ff       	callq  400c30 <fprintf@plt>
  40195f:	bf 01 00 00 00       	mov    $0x1,%edi
  401964:	e8 67 f3 ff ff       	callq  400cd0 <exit@plt>

0000000000401969 <rio_readinitb>:
rio_readinitb():
  401969:	55                   	push   %rbp
  40196a:	48 89 e5             	mov    %rsp,%rbp
  40196d:	48 89 7d f8          	mov    %rdi,-0x8(%rbp)
  401971:	89 75 f4             	mov    %esi,-0xc(%rbp)
  401974:	48 8b 45 f8          	mov    -0x8(%rbp),%rax
  401978:	8b 55 f4             	mov    -0xc(%rbp),%edx
  40197b:	89 10                	mov    %edx,(%rax)
  40197d:	48 8b 45 f8          	mov    -0x8(%rbp),%rax
  401981:	c7 40 04 00 00 00 00 	movl   $0x0,0x4(%rax)
  401988:	48 8b 45 f8          	mov    -0x8(%rbp),%rax
  40198c:	48 8d 50 10          	lea    0x10(%rax),%rdx
  401990:	48 8b 45 f8          	mov    -0x8(%rbp),%rax
  401994:	48 89 50 08          	mov    %rdx,0x8(%rax)
  401998:	5d                   	pop    %rbp
  401999:	c3                   	retq   

000000000040199a <rio_read>:
rio_read():
  40199a:	55                   	push   %rbp
  40199b:	48 89 e5             	mov    %rsp,%rbp
  40199e:	48 83 ec 30          	sub    $0x30,%rsp
  4019a2:	48 89 7d e8          	mov    %rdi,-0x18(%rbp)
  4019a6:	48 89 75 e0          	mov    %rsi,-0x20(%rbp)
  4019aa:	48 89 55 d8          	mov    %rdx,-0x28(%rbp)
  4019ae:	eb 6e                	jmp    401a1e <rio_read+0x84>
  4019b0:	48 8b 45 e8          	mov    -0x18(%rbp),%rax
  4019b4:	48 8d 48 10          	lea    0x10(%rax),%rcx
  4019b8:	48 8b 45 e8          	mov    -0x18(%rbp),%rax
  4019bc:	8b 00                	mov    (%rax),%eax
  4019be:	ba 00 20 00 00       	mov    $0x2000,%edx
  4019c3:	48 89 ce             	mov    %rcx,%rsi
  4019c6:	89 c7                	mov    %eax,%edi
  4019c8:	e8 03 f2 ff ff       	callq  400bd0 <read@plt>
  4019cd:	89 c2                	mov    %eax,%edx
  4019cf:	48 8b 45 e8          	mov    -0x18(%rbp),%rax
  4019d3:	89 50 04             	mov    %edx,0x4(%rax)
  4019d6:	48 8b 45 e8          	mov    -0x18(%rbp),%rax
  4019da:	8b 40 04             	mov    0x4(%rax),%eax
  4019dd:	85 c0                	test   %eax,%eax
  4019df:	79 18                	jns    4019f9 <rio_read+0x5f>
  4019e1:	e8 5a f1 ff ff       	callq  400b40 <__errno_location@plt>
  4019e6:	8b 00                	mov    (%rax),%eax
  4019e8:	83 f8 04             	cmp    $0x4,%eax
  4019eb:	74 31                	je     401a1e <rio_read+0x84>
  4019ed:	48 c7 c0 ff ff ff ff 	mov    $0xffffffffffffffff,%rax
  4019f4:	e9 9d 00 00 00       	jmpq   401a96 <rio_read+0xfc>
  4019f9:	48 8b 45 e8          	mov    -0x18(%rbp),%rax
  4019fd:	8b 40 04             	mov    0x4(%rax),%eax
  401a00:	85 c0                	test   %eax,%eax
  401a02:	75 0a                	jne    401a0e <rio_read+0x74>
  401a04:	b8 00 00 00 00       	mov    $0x0,%eax
  401a09:	e9 88 00 00 00       	jmpq   401a96 <rio_read+0xfc>
  401a0e:	48 8b 45 e8          	mov    -0x18(%rbp),%rax
  401a12:	48 8d 50 10          	lea    0x10(%rax),%rdx
  401a16:	48 8b 45 e8          	mov    -0x18(%rbp),%rax
  401a1a:	48 89 50 08          	mov    %rdx,0x8(%rax)
  401a1e:	48 8b 45 e8          	mov    -0x18(%rbp),%rax
  401a22:	8b 40 04             	mov    0x4(%rax),%eax
  401a25:	85 c0                	test   %eax,%eax
  401a27:	7e 87                	jle    4019b0 <rio_read+0x16>
  401a29:	48 8b 45 d8          	mov    -0x28(%rbp),%rax
  401a2d:	89 45 fc             	mov    %eax,-0x4(%rbp)
  401a30:	48 8b 45 e8          	mov    -0x18(%rbp),%rax
  401a34:	8b 40 04             	mov    0x4(%rax),%eax
  401a37:	48 98                	cltq   
  401a39:	48 3b 45 d8          	cmp    -0x28(%rbp),%rax
  401a3d:	73 0a                	jae    401a49 <rio_read+0xaf>
  401a3f:	48 8b 45 e8          	mov    -0x18(%rbp),%rax
  401a43:	8b 40 04             	mov    0x4(%rax),%eax
  401a46:	89 45 fc             	mov    %eax,-0x4(%rbp)
  401a49:	8b 45 fc             	mov    -0x4(%rbp),%eax
  401a4c:	48 63 d0             	movslq %eax,%rdx
  401a4f:	48 8b 45 e8          	mov    -0x18(%rbp),%rax
  401a53:	48 8b 48 08          	mov    0x8(%rax),%rcx
  401a57:	48 8b 45 e0          	mov    -0x20(%rbp),%rax
  401a5b:	48 89 ce             	mov    %rcx,%rsi
  401a5e:	48 89 c7             	mov    %rax,%rdi
  401a61:	e8 ea f1 ff ff       	callq  400c50 <memcpy@plt>
  401a66:	48 8b 45 e8          	mov    -0x18(%rbp),%rax
  401a6a:	48 8b 50 08          	mov    0x8(%rax),%rdx
  401a6e:	8b 45 fc             	mov    -0x4(%rbp),%eax
  401a71:	48 98                	cltq   
  401a73:	48 01 c2             	add    %rax,%rdx
  401a76:	48 8b 45 e8          	mov    -0x18(%rbp),%rax
  401a7a:	48 89 50 08          	mov    %rdx,0x8(%rax)
  401a7e:	48 8b 45 e8          	mov    -0x18(%rbp),%rax
  401a82:	8b 40 04             	mov    0x4(%rax),%eax
  401a85:	2b 45 fc             	sub    -0x4(%rbp),%eax
  401a88:	89 c2                	mov    %eax,%edx
  401a8a:	48 8b 45 e8          	mov    -0x18(%rbp),%rax
  401a8e:	89 50 04             	mov    %edx,0x4(%rax)
  401a91:	8b 45 fc             	mov    -0x4(%rbp),%eax
  401a94:	48 98                	cltq   
  401a96:	c9                   	leaveq 
  401a97:	c3                   	retq   

0000000000401a98 <rio_readlineb>:
rio_readlineb():
  401a98:	55                   	push   %rbp
  401a99:	48 89 e5             	mov    %rsp,%rbp
  401a9c:	48 83 ec 40          	sub    $0x40,%rsp
  401aa0:	48 89 7d d8          	mov    %rdi,-0x28(%rbp)
  401aa4:	48 89 75 d0          	mov    %rsi,-0x30(%rbp)
  401aa8:	48 89 55 c8          	mov    %rdx,-0x38(%rbp)
  401aac:	48 8b 45 d0          	mov    -0x30(%rbp),%rax
  401ab0:	48 89 45 f0          	mov    %rax,-0x10(%rbp)
  401ab4:	c7 45 fc 01 00 00 00 	movl   $0x1,-0x4(%rbp)
  401abb:	eb 5f                	jmp    401b1c <rio_readlineb+0x84>
  401abd:	48 8d 4d eb          	lea    -0x15(%rbp),%rcx
  401ac1:	48 8b 45 d8          	mov    -0x28(%rbp),%rax
  401ac5:	ba 01 00 00 00       	mov    $0x1,%edx
  401aca:	48 89 ce             	mov    %rcx,%rsi
  401acd:	48 89 c7             	mov    %rax,%rdi
  401ad0:	e8 c5 fe ff ff       	callq  40199a <rio_read>
  401ad5:	89 45 ec             	mov    %eax,-0x14(%rbp)
  401ad8:	83 7d ec 01          	cmpl   $0x1,-0x14(%rbp)
  401adc:	75 1c                	jne    401afa <rio_readlineb+0x62>
  401ade:	48 8b 45 f0          	mov    -0x10(%rbp),%rax
  401ae2:	48 8d 50 01          	lea    0x1(%rax),%rdx
  401ae6:	48 89 55 f0          	mov    %rdx,-0x10(%rbp)
  401aea:	0f b6 55 eb          	movzbl -0x15(%rbp),%edx
  401aee:	88 10                	mov    %dl,(%rax)
  401af0:	0f b6 45 eb          	movzbl -0x15(%rbp),%eax
  401af4:	3c 0a                	cmp    $0xa,%al
  401af6:	75 20                	jne    401b18 <rio_readlineb+0x80>
  401af8:	eb 2d                	jmp    401b27 <rio_readlineb+0x8f>
  401afa:	83 7d ec 00          	cmpl   $0x0,-0x14(%rbp)
  401afe:	75 0f                	jne    401b0f <rio_readlineb+0x77>
  401b00:	83 7d fc 01          	cmpl   $0x1,-0x4(%rbp)
  401b04:	75 07                	jne    401b0d <rio_readlineb+0x75>
  401b06:	b8 00 00 00 00       	mov    $0x0,%eax
  401b0b:	eb 26                	jmp    401b33 <rio_readlineb+0x9b>
  401b0d:	eb 18                	jmp    401b27 <rio_readlineb+0x8f>
  401b0f:	48 c7 c0 ff ff ff ff 	mov    $0xffffffffffffffff,%rax
  401b16:	eb 1b                	jmp    401b33 <rio_readlineb+0x9b>
  401b18:	83 45 fc 01          	addl   $0x1,-0x4(%rbp)
  401b1c:	8b 45 fc             	mov    -0x4(%rbp),%eax
  401b1f:	48 98                	cltq   
  401b21:	48 3b 45 c8          	cmp    -0x38(%rbp),%rax
  401b25:	72 96                	jb     401abd <rio_readlineb+0x25>
  401b27:	48 8b 45 f0          	mov    -0x10(%rbp),%rax
  401b2b:	c6 00 00             	movb   $0x0,(%rax)
  401b2e:	8b 45 fc             	mov    -0x4(%rbp),%eax
  401b31:	48 98                	cltq   
  401b33:	c9                   	leaveq 
  401b34:	c3                   	retq   

0000000000401b35 <rio_writen>:
rio_writen():
  401b35:	55                   	push   %rbp
  401b36:	48 89 e5             	mov    %rsp,%rbp
  401b39:	48 83 ec 40          	sub    $0x40,%rsp
  401b3d:	89 7d dc             	mov    %edi,-0x24(%rbp)
  401b40:	48 89 75 d0          	mov    %rsi,-0x30(%rbp)
  401b44:	48 89 55 c8          	mov    %rdx,-0x38(%rbp)
  401b48:	48 8b 45 c8          	mov    -0x38(%rbp),%rax
  401b4c:	48 89 45 f8          	mov    %rax,-0x8(%rbp)
  401b50:	48 8b 45 d0          	mov    -0x30(%rbp),%rax
  401b54:	48 89 45 e8          	mov    %rax,-0x18(%rbp)
  401b58:	eb 4f                	jmp    401ba9 <rio_writen+0x74>
  401b5a:	48 8b 55 f8          	mov    -0x8(%rbp),%rdx
  401b5e:	48 8b 4d e8          	mov    -0x18(%rbp),%rcx
  401b62:	8b 45 dc             	mov    -0x24(%rbp),%eax
  401b65:	48 89 ce             	mov    %rcx,%rsi
  401b68:	89 c7                	mov    %eax,%edi
  401b6a:	e8 01 f0 ff ff       	callq  400b70 <write@plt>
  401b6f:	48 89 45 f0          	mov    %rax,-0x10(%rbp)
  401b73:	48 83 7d f0 00       	cmpq   $0x0,-0x10(%rbp)
  401b78:	7f 1f                	jg     401b99 <rio_writen+0x64>
  401b7a:	e8 c1 ef ff ff       	callq  400b40 <__errno_location@plt>
  401b7f:	8b 00                	mov    (%rax),%eax
  401b81:	83 f8 04             	cmp    $0x4,%eax
  401b84:	75 0a                	jne    401b90 <rio_writen+0x5b>
  401b86:	48 c7 45 f0 00 00 00 	movq   $0x0,-0x10(%rbp)
  401b8d:	00 
  401b8e:	eb 09                	jmp    401b99 <rio_writen+0x64>
  401b90:	48 c7 c0 ff ff ff ff 	mov    $0xffffffffffffffff,%rax
  401b97:	eb 1b                	jmp    401bb4 <rio_writen+0x7f>
  401b99:	48 8b 45 f0          	mov    -0x10(%rbp),%rax
  401b9d:	48 29 45 f8          	sub    %rax,-0x8(%rbp)
  401ba1:	48 8b 45 f0          	mov    -0x10(%rbp),%rax
  401ba5:	48 01 45 e8          	add    %rax,-0x18(%rbp)
  401ba9:	48 83 7d f8 00       	cmpq   $0x0,-0x8(%rbp)
  401bae:	75 aa                	jne    401b5a <rio_writen+0x25>
  401bb0:	48 8b 45 c8          	mov    -0x38(%rbp),%rax
  401bb4:	c9                   	leaveq 
  401bb5:	c3                   	retq   

0000000000401bb6 <urlencode>:
urlencode():
  401bb6:	55                   	push   %rbp
  401bb7:	48 89 e5             	mov    %rsp,%rbp
  401bba:	48 83 ec 20          	sub    $0x20,%rsp
  401bbe:	48 89 7d e8          	mov    %rdi,-0x18(%rbp)
  401bc2:	48 89 75 e0          	mov    %rsi,-0x20(%rbp)
  401bc6:	48 8b 45 e8          	mov    -0x18(%rbp),%rax
  401bca:	48 89 c7             	mov    %rax,%rdi
  401bcd:	e8 ae ef ff ff       	callq  400b80 <strlen@plt>
  401bd2:	89 45 fc             	mov    %eax,-0x4(%rbp)
  401bd5:	e9 2c 01 00 00       	jmpq   401d06 <urlencode+0x150>
  401bda:	48 8b 45 e8          	mov    -0x18(%rbp),%rax
  401bde:	0f b6 00             	movzbl (%rax),%eax
  401be1:	3c 2a                	cmp    $0x2a,%al
  401be3:	74 63                	je     401c48 <urlencode+0x92>
  401be5:	48 8b 45 e8          	mov    -0x18(%rbp),%rax
  401be9:	0f b6 00             	movzbl (%rax),%eax
  401bec:	3c 2d                	cmp    $0x2d,%al
  401bee:	74 58                	je     401c48 <urlencode+0x92>
  401bf0:	48 8b 45 e8          	mov    -0x18(%rbp),%rax
  401bf4:	0f b6 00             	movzbl (%rax),%eax
  401bf7:	3c 2e                	cmp    $0x2e,%al
  401bf9:	74 4d                	je     401c48 <urlencode+0x92>
  401bfb:	48 8b 45 e8          	mov    -0x18(%rbp),%rax
  401bff:	0f b6 00             	movzbl (%rax),%eax
  401c02:	3c 5f                	cmp    $0x5f,%al
  401c04:	74 42                	je     401c48 <urlencode+0x92>
  401c06:	48 8b 45 e8          	mov    -0x18(%rbp),%rax
  401c0a:	0f b6 00             	movzbl (%rax),%eax
  401c0d:	3c 2f                	cmp    $0x2f,%al
  401c0f:	76 0b                	jbe    401c1c <urlencode+0x66>
  401c11:	48 8b 45 e8          	mov    -0x18(%rbp),%rax
  401c15:	0f b6 00             	movzbl (%rax),%eax
  401c18:	3c 39                	cmp    $0x39,%al
  401c1a:	76 2c                	jbe    401c48 <urlencode+0x92>
  401c1c:	48 8b 45 e8          	mov    -0x18(%rbp),%rax
  401c20:	0f b6 00             	movzbl (%rax),%eax
  401c23:	3c 40                	cmp    $0x40,%al
  401c25:	76 0b                	jbe    401c32 <urlencode+0x7c>
  401c27:	48 8b 45 e8          	mov    -0x18(%rbp),%rax
  401c2b:	0f b6 00             	movzbl (%rax),%eax
  401c2e:	3c 5a                	cmp    $0x5a,%al
  401c30:	76 16                	jbe    401c48 <urlencode+0x92>
  401c32:	48 8b 45 e8          	mov    -0x18(%rbp),%rax
  401c36:	0f b6 00             	movzbl (%rax),%eax
  401c39:	3c 60                	cmp    $0x60,%al
  401c3b:	76 25                	jbe    401c62 <urlencode+0xac>
  401c3d:	48 8b 45 e8          	mov    -0x18(%rbp),%rax
  401c41:	0f b6 00             	movzbl (%rax),%eax
  401c44:	3c 7a                	cmp    $0x7a,%al
  401c46:	77 1a                	ja     401c62 <urlencode+0xac>
  401c48:	48 8b 45 e0          	mov    -0x20(%rbp),%rax
  401c4c:	48 8d 50 01          	lea    0x1(%rax),%rdx
  401c50:	48 89 55 e0          	mov    %rdx,-0x20(%rbp)
  401c54:	48 8b 55 e8          	mov    -0x18(%rbp),%rdx
  401c58:	0f b6 12             	movzbl (%rdx),%edx
  401c5b:	88 10                	mov    %dl,(%rax)
  401c5d:	e9 9f 00 00 00       	jmpq   401d01 <urlencode+0x14b>
  401c62:	48 8b 45 e8          	mov    -0x18(%rbp),%rax
  401c66:	0f b6 00             	movzbl (%rax),%eax
  401c69:	3c 20                	cmp    $0x20,%al
  401c6b:	75 14                	jne    401c81 <urlencode+0xcb>
  401c6d:	48 8b 45 e0          	mov    -0x20(%rbp),%rax
  401c71:	48 8d 50 01          	lea    0x1(%rax),%rdx
  401c75:	48 89 55 e0          	mov    %rdx,-0x20(%rbp)
  401c79:	c6 00 2b             	movb   $0x2b,(%rax)
  401c7c:	e9 80 00 00 00       	jmpq   401d01 <urlencode+0x14b>
  401c81:	48 8b 45 e8          	mov    -0x18(%rbp),%rax
  401c85:	0f b6 00             	movzbl (%rax),%eax
  401c88:	3c 1f                	cmp    $0x1f,%al
  401c8a:	76 0b                	jbe    401c97 <urlencode+0xe1>
  401c8c:	48 8b 45 e8          	mov    -0x18(%rbp),%rax
  401c90:	0f b6 00             	movzbl (%rax),%eax
  401c93:	84 c0                	test   %al,%al
  401c95:	79 0b                	jns    401ca2 <urlencode+0xec>
  401c97:	48 8b 45 e8          	mov    -0x18(%rbp),%rax
  401c9b:	0f b6 00             	movzbl (%rax),%eax
  401c9e:	3c 09                	cmp    $0x9,%al
  401ca0:	75 58                	jne    401cfa <urlencode+0x144>
  401ca2:	48 8b 45 e8          	mov    -0x18(%rbp),%rax
  401ca6:	0f b6 00             	movzbl (%rax),%eax
  401ca9:	0f b6 d0             	movzbl %al,%edx
  401cac:	48 8d 45 f0          	lea    -0x10(%rbp),%rax
  401cb0:	be 94 2b 40 00       	mov    $0x402b94,%esi
  401cb5:	48 89 c7             	mov    %rax,%rdi
  401cb8:	b8 00 00 00 00       	mov    $0x0,%eax
  401cbd:	e8 fe ef ff ff       	callq  400cc0 <sprintf@plt>
  401cc2:	48 8b 45 e0          	mov    -0x20(%rbp),%rax
  401cc6:	48 8d 50 01          	lea    0x1(%rax),%rdx
  401cca:	48 89 55 e0          	mov    %rdx,-0x20(%rbp)
  401cce:	0f b6 55 f0          	movzbl -0x10(%rbp),%edx
  401cd2:	88 10                	mov    %dl,(%rax)
  401cd4:	48 8b 45 e0          	mov    -0x20(%rbp),%rax
  401cd8:	48 8d 50 01          	lea    0x1(%rax),%rdx
  401cdc:	48 89 55 e0          	mov    %rdx,-0x20(%rbp)
  401ce0:	0f b6 55 f1          	movzbl -0xf(%rbp),%edx
  401ce4:	88 10                	mov    %dl,(%rax)
  401ce6:	48 8b 45 e0          	mov    -0x20(%rbp),%rax
  401cea:	48 8d 50 01          	lea    0x1(%rax),%rdx
  401cee:	48 89 55 e0          	mov    %rdx,-0x20(%rbp)
  401cf2:	0f b6 55 f2          	movzbl -0xe(%rbp),%edx
  401cf6:	88 10                	mov    %dl,(%rax)
  401cf8:	eb 07                	jmp    401d01 <urlencode+0x14b>
  401cfa:	b8 ff ff ff ff       	mov    $0xffffffff,%eax
  401cff:	eb 1b                	jmp    401d1c <urlencode+0x166>
  401d01:	48 83 45 e8 01       	addq   $0x1,-0x18(%rbp)
  401d06:	8b 45 fc             	mov    -0x4(%rbp),%eax
  401d09:	8d 50 ff             	lea    -0x1(%rax),%edx
  401d0c:	89 55 fc             	mov    %edx,-0x4(%rbp)
  401d0f:	85 c0                	test   %eax,%eax
  401d11:	0f 85 c3 fe ff ff    	jne    401bda <urlencode+0x24>
  401d17:	b8 00 00 00 00       	mov    $0x0,%eax
  401d1c:	c9                   	leaveq 
  401d1d:	c3                   	retq   

0000000000401d1e <submitr>:
submitr():
  401d1e:	55                   	push   %rbp
  401d1f:	48 89 e5             	mov    %rsp,%rbp
  401d22:	53                   	push   %rbx
  401d23:	48 81 ec 88 a0 00 00 	sub    $0xa088,%rsp
  401d2a:	48 89 bd 98 5f ff ff 	mov    %rdi,-0xa068(%rbp)
  401d31:	89 b5 94 5f ff ff    	mov    %esi,-0xa06c(%rbp)
  401d37:	48 89 95 88 5f ff ff 	mov    %rdx,-0xa078(%rbp)
  401d3e:	48 89 8d 80 5f ff ff 	mov    %rcx,-0xa080(%rbp)
  401d45:	4c 89 85 78 5f ff ff 	mov    %r8,-0xa088(%rbp)
  401d4c:	4c 89 8d 70 5f ff ff 	mov    %r9,-0xa090(%rbp)
  401d53:	c7 85 ac 7f ff ff 00 	movl   $0x0,-0x8054(%rbp)
  401d5a:	00 00 00 
  401d5d:	ba 00 00 00 00       	mov    $0x0,%edx
  401d62:	be 01 00 00 00       	mov    $0x1,%esi
  401d67:	bf 02 00 00 00       	mov    $0x2,%edi
  401d6c:	e8 9f ef ff ff       	callq  400d10 <socket@plt>
  401d71:	89 45 ec             	mov    %eax,-0x14(%rbp)
  401d74:	83 7d ec 00          	cmpl   $0x0,-0x14(%rbp)
  401d78:	79 52                	jns    401dcc <submitr+0xae>
  401d7a:	48 8b 45 10          	mov    0x10(%rbp),%rax
  401d7e:	48 bb 45 72 72 6f 72 	movabs $0x43203a726f727245,%rbx
  401d85:	3a 20 43 
  401d88:	48 89 18             	mov    %rbx,(%rax)
  401d8b:	48 bb 6c 69 65 6e 74 	movabs $0x6e7520746e65696c,%rbx
  401d92:	20 75 6e 
  401d95:	48 89 58 08          	mov    %rbx,0x8(%rax)
  401d99:	48 bb 61 62 6c 65 20 	movabs $0x206f7420656c6261,%rbx
  401da0:	74 6f 20 
  401da3:	48 89 58 10          	mov    %rbx,0x10(%rax)
  401da7:	48 bb 63 72 65 61 74 	movabs $0x7320657461657263,%rbx
  401dae:	65 20 73 
  401db1:	48 89 58 18          	mov    %rbx,0x18(%rax)
  401db5:	c7 40 20 6f 63 6b 65 	movl   $0x656b636f,0x20(%rax)
  401dbc:	66 c7 40 24 74 00    	movw   $0x74,0x24(%rax)
  401dc2:	b8 ff ff ff ff       	mov    $0xffffffff,%eax
  401dc7:	e9 77 06 00 00       	jmpq   402443 <submitr+0x725>
  401dcc:	48 8b 85 98 5f ff ff 	mov    -0xa068(%rbp),%rax
  401dd3:	48 89 c7             	mov    %rax,%rdi
  401dd6:	e8 45 ee ff ff       	callq  400c20 <gethostbyname@plt>
  401ddb:	48 89 45 e0          	mov    %rax,-0x20(%rbp)
  401ddf:	48 83 7d e0 00       	cmpq   $0x0,-0x20(%rbp)
  401de4:	75 6e                	jne    401e54 <submitr+0x136>
  401de6:	48 8b 45 10          	mov    0x10(%rbp),%rax
  401dea:	48 bb 45 72 72 6f 72 	movabs $0x44203a726f727245,%rbx
  401df1:	3a 20 44 
  401df4:	48 89 18             	mov    %rbx,(%rax)
  401df7:	48 bb 4e 53 20 69 73 	movabs $0x6e7520736920534e,%rbx
  401dfe:	20 75 6e 
  401e01:	48 89 58 08          	mov    %rbx,0x8(%rax)
  401e05:	48 bb 61 62 6c 65 20 	movabs $0x206f7420656c6261,%rbx
  401e0c:	74 6f 20 
  401e0f:	48 89 58 10          	mov    %rbx,0x10(%rax)
  401e13:	48 bb 72 65 73 6f 6c 	movabs $0x2065766c6f736572,%rbx
  401e1a:	76 65 20 
  401e1d:	48 89 58 18          	mov    %rbx,0x18(%rax)
  401e21:	48 bb 73 65 72 76 65 	movabs $0x6120726576726573,%rbx
  401e28:	72 20 61 
  401e2b:	48 89 58 20          	mov    %rbx,0x20(%rax)
  401e2f:	c7 40 28 64 64 72 65 	movl   $0x65726464,0x28(%rax)
  401e36:	66 c7 40 2c 73 73    	movw   $0x7373,0x2c(%rax)
  401e3c:	c6 40 2e 00          	movb   $0x0,0x2e(%rax)
  401e40:	8b 45 ec             	mov    -0x14(%rbp),%eax
  401e43:	89 c7                	mov    %eax,%edi
  401e45:	e8 76 ed ff ff       	callq  400bc0 <close@plt>
  401e4a:	b8 ff ff ff ff       	mov    $0xffffffff,%eax
  401e4f:	e9 ef 05 00 00       	jmpq   402443 <submitr+0x725>
  401e54:	48 8d 45 c0          	lea    -0x40(%rbp),%rax
  401e58:	be 10 00 00 00       	mov    $0x10,%esi
  401e5d:	48 89 c7             	mov    %rax,%rdi
  401e60:	e8 3b ee ff ff       	callq  400ca0 <bzero@plt>
  401e65:	66 c7 45 c0 02 00    	movw   $0x2,-0x40(%rbp)
  401e6b:	48 8b 45 e0          	mov    -0x20(%rbp),%rax
  401e6f:	8b 40 14             	mov    0x14(%rax),%eax
  401e72:	48 63 d0             	movslq %eax,%rdx
  401e75:	48 8b 45 e0          	mov    -0x20(%rbp),%rax
  401e79:	48 8b 40 18          	mov    0x18(%rax),%rax
  401e7d:	48 8b 00             	mov    (%rax),%rax
  401e80:	48 8d 4d c0          	lea    -0x40(%rbp),%rcx
  401e84:	48 83 c1 04          	add    $0x4,%rcx
  401e88:	48 89 ce             	mov    %rcx,%rsi
  401e8b:	48 89 c7             	mov    %rax,%rdi
  401e8e:	e8 ed ed ff ff       	callq  400c80 <bcopy@plt>
  401e93:	8b 85 94 5f ff ff    	mov    -0xa06c(%rbp),%eax
  401e99:	0f b7 c0             	movzwl %ax,%eax
  401e9c:	89 c7                	mov    %eax,%edi
  401e9e:	e8 ed ec ff ff       	callq  400b90 <htons@plt>
  401ea3:	66 89 45 c2          	mov    %ax,-0x3e(%rbp)
  401ea7:	48 8d 4d c0          	lea    -0x40(%rbp),%rcx
  401eab:	8b 45 ec             	mov    -0x14(%rbp),%eax
  401eae:	ba 10 00 00 00       	mov    $0x10,%edx
  401eb3:	48 89 ce             	mov    %rcx,%rsi
  401eb6:	89 c7                	mov    %eax,%edi
  401eb8:	e8 23 ee ff ff       	callq  400ce0 <connect@plt>
  401ebd:	85 c0                	test   %eax,%eax
  401ebf:	79 60                	jns    401f21 <submitr+0x203>
  401ec1:	48 8b 45 10          	mov    0x10(%rbp),%rax
  401ec5:	48 be 45 72 72 6f 72 	movabs $0x55203a726f727245,%rsi
  401ecc:	3a 20 55 
  401ecf:	48 89 30             	mov    %rsi,(%rax)
  401ed2:	48 bb 6e 61 62 6c 65 	movabs $0x6f7420656c62616e,%rbx
  401ed9:	20 74 6f 
  401edc:	48 89 58 08          	mov    %rbx,0x8(%rax)
  401ee0:	48 b9 20 63 6f 6e 6e 	movabs $0x7463656e6e6f6320,%rcx
  401ee7:	65 63 74 
  401eea:	48 89 48 10          	mov    %rcx,0x10(%rax)
  401eee:	48 be 20 74 6f 20 74 	movabs $0x20656874206f7420,%rsi
  401ef5:	68 65 20 
  401ef8:	48 89 70 18          	mov    %rsi,0x18(%rax)
  401efc:	c7 40 20 73 65 72 76 	movl   $0x76726573,0x20(%rax)
  401f03:	66 c7 40 24 65 72    	movw   $0x7265,0x24(%rax)
  401f09:	c6 40 26 00          	movb   $0x0,0x26(%rax)
  401f0d:	8b 45 ec             	mov    -0x14(%rbp),%eax
  401f10:	89 c7                	mov    %eax,%edi
  401f12:	e8 a9 ec ff ff       	callq  400bc0 <close@plt>
  401f17:	b8 ff ff ff ff       	mov    $0xffffffff,%eax
  401f1c:	e9 22 05 00 00       	jmpq   402443 <submitr+0x725>
  401f21:	48 8b 85 70 5f ff ff 	mov    -0xa090(%rbp),%rax
  401f28:	48 89 c7             	mov    %rax,%rdi
  401f2b:	e8 50 ec ff ff       	callq  400b80 <strlen@plt>
  401f30:	48 89 45 d8          	mov    %rax,-0x28(%rbp)
  401f34:	48 8b 85 88 5f ff ff 	mov    -0xa078(%rbp),%rax
  401f3b:	48 89 c7             	mov    %rax,%rdi
  401f3e:	e8 3d ec ff ff       	callq  400b80 <strlen@plt>
  401f43:	48 89 c3             	mov    %rax,%rbx
  401f46:	48 8b 85 80 5f ff ff 	mov    -0xa080(%rbp),%rax
  401f4d:	48 89 c7             	mov    %rax,%rdi
  401f50:	e8 2b ec ff ff       	callq  400b80 <strlen@plt>
  401f55:	48 01 c3             	add    %rax,%rbx
  401f58:	48 8b 85 78 5f ff ff 	mov    -0xa088(%rbp),%rax
  401f5f:	48 89 c7             	mov    %rax,%rdi
  401f62:	e8 19 ec ff ff       	callq  400b80 <strlen@plt>
  401f67:	48 8d 0c 03          	lea    (%rbx,%rax,1),%rcx
  401f6b:	48 8b 55 d8          	mov    -0x28(%rbp),%rdx
  401f6f:	48 89 d0             	mov    %rdx,%rax
  401f72:	48 01 c0             	add    %rax,%rax
  401f75:	48 01 d0             	add    %rdx,%rax
  401f78:	48 01 c8             	add    %rcx,%rax
  401f7b:	48 83 e8 80          	sub    $0xffffffffffffff80,%rax
  401f7f:	48 89 45 d0          	mov    %rax,-0x30(%rbp)
  401f83:	48 81 7d d0 00 20 00 	cmpq   $0x2000,-0x30(%rbp)
  401f8a:	00 
  401f8b:	76 79                	jbe    402006 <submitr+0x2e8>
  401f8d:	48 8b 45 10          	mov    0x10(%rbp),%rax
  401f91:	48 bb 45 72 72 6f 72 	movabs $0x52203a726f727245,%rbx
  401f98:	3a 20 52 
  401f9b:	48 89 18             	mov    %rbx,(%rax)
  401f9e:	48 b9 65 73 75 6c 74 	movabs $0x747320746c757365,%rcx
  401fa5:	20 73 74 
  401fa8:	48 89 48 08          	mov    %rcx,0x8(%rax)
  401fac:	48 be 72 69 6e 67 20 	movabs $0x6f6f7420676e6972,%rsi
  401fb3:	74 6f 6f 
  401fb6:	48 89 70 10          	mov    %rsi,0x10(%rax)
  401fba:	48 bb 20 6c 61 72 67 	movabs $0x202e656772616c20,%rbx
  401fc1:	65 2e 20 
  401fc4:	48 89 58 18          	mov    %rbx,0x18(%rax)
  401fc8:	48 ba 49 6e 63 72 65 	movabs $0x6573616572636e49,%rdx
  401fcf:	61 73 65 
  401fd2:	48 89 50 20          	mov    %rdx,0x20(%rax)
  401fd6:	48 b9 20 53 55 42 4d 	movabs $0x5254494d42555320,%rcx
  401fdd:	49 54 52 
  401fe0:	48 89 48 28          	mov    %rcx,0x28(%rax)
  401fe4:	48 be 5f 4d 41 58 42 	movabs $0x46554258414d5f,%rsi
  401feb:	55 46 00 
  401fee:	48 89 70 30          	mov    %rsi,0x30(%rax)
  401ff2:	8b 45 ec             	mov    -0x14(%rbp),%eax
  401ff5:	89 c7                	mov    %eax,%edi
  401ff7:	e8 c4 eb ff ff       	callq  400bc0 <close@plt>
  401ffc:	b8 ff ff ff ff       	mov    $0xffffffff,%eax
  402001:	e9 3d 04 00 00       	jmpq   402443 <submitr+0x725>
  402006:	48 8d 85 b0 9f ff ff 	lea    -0x6050(%rbp),%rax
  40200d:	be 00 20 00 00       	mov    $0x2000,%esi
  402012:	48 89 c7             	mov    %rax,%rdi
  402015:	e8 86 ec ff ff       	callq  400ca0 <bzero@plt>
  40201a:	48 8d 95 b0 9f ff ff 	lea    -0x6050(%rbp),%rdx
  402021:	48 8b 85 70 5f ff ff 	mov    -0xa090(%rbp),%rax
  402028:	48 89 d6             	mov    %rdx,%rsi
  40202b:	48 89 c7             	mov    %rax,%rdi
  40202e:	e8 83 fb ff ff       	callq  401bb6 <urlencode>
  402033:	85 c0                	test   %eax,%eax
  402035:	0f 89 91 00 00 00    	jns    4020cc <submitr+0x3ae>
  40203b:	48 8b 45 10          	mov    0x10(%rbp),%rax
  40203f:	48 bb 45 72 72 6f 72 	movabs $0x52203a726f727245,%rbx
  402046:	3a 20 52 
  402049:	48 89 18             	mov    %rbx,(%rax)
  40204c:	48 ba 65 73 75 6c 74 	movabs $0x747320746c757365,%rdx
  402053:	20 73 74 
  402056:	48 89 50 08          	mov    %rdx,0x8(%rax)
  40205a:	48 b9 72 69 6e 67 20 	movabs $0x6e6f6320676e6972,%rcx
  402061:	63 6f 6e 
  402064:	48 89 48 10          	mov    %rcx,0x10(%rax)
  402068:	48 be 74 61 69 6e 73 	movabs $0x6e6120736e696174,%rsi
  40206f:	20 61 6e 
  402072:	48 89 70 18          	mov    %rsi,0x18(%rax)
  402076:	48 bb 20 69 6c 6c 65 	movabs $0x6c6167656c6c6920,%rbx
  40207d:	67 61 6c 
  402080:	48 89 58 20          	mov    %rbx,0x20(%rax)
  402084:	48 ba 20 6f 72 20 75 	movabs $0x72706e7520726f20,%rdx
  40208b:	6e 70 72 
  40208e:	48 89 50 28          	mov    %rdx,0x28(%rax)
  402092:	48 b9 69 6e 74 61 62 	movabs $0x20656c6261746e69,%rcx
  402099:	6c 65 20 
  40209c:	48 89 48 30          	mov    %rcx,0x30(%rax)
  4020a0:	48 be 63 68 61 72 61 	movabs $0x6574636172616863,%rsi
  4020a7:	63 74 65 
  4020aa:	48 89 70 38          	mov    %rsi,0x38(%rax)
  4020ae:	66 c7 40 40 72 2e    	movw   $0x2e72,0x40(%rax)
  4020b4:	c6 40 42 00          	movb   $0x0,0x42(%rax)
  4020b8:	8b 45 ec             	mov    -0x14(%rbp),%eax
  4020bb:	89 c7                	mov    %eax,%edi
  4020bd:	e8 fe ea ff ff       	callq  400bc0 <close@plt>
  4020c2:	b8 ff ff ff ff       	mov    $0xffffffff,%eax
  4020c7:	e9 77 03 00 00       	jmpq   402443 <submitr+0x725>
  4020cc:	48 8d bd b0 9f ff ff 	lea    -0x6050(%rbp),%rdi
  4020d3:	48 8b b5 78 5f ff ff 	mov    -0xa088(%rbp),%rsi
  4020da:	48 8b 8d 80 5f ff ff 	mov    -0xa080(%rbp),%rcx
  4020e1:	48 8b 95 88 5f ff ff 	mov    -0xa078(%rbp),%rdx
  4020e8:	48 8d 85 b0 bf ff ff 	lea    -0x4050(%rbp),%rax
  4020ef:	49 89 f9             	mov    %rdi,%r9
  4020f2:	49 89 f0             	mov    %rsi,%r8
  4020f5:	be a0 2b 40 00       	mov    $0x402ba0,%esi
  4020fa:	48 89 c7             	mov    %rax,%rdi
  4020fd:	b8 00 00 00 00       	mov    $0x0,%eax
  402102:	e8 b9 eb ff ff       	callq  400cc0 <sprintf@plt>
  402107:	48 8d 85 b0 bf ff ff 	lea    -0x4050(%rbp),%rax
  40210e:	48 89 c7             	mov    %rax,%rdi
  402111:	e8 6a ea ff ff       	callq  400b80 <strlen@plt>
  402116:	48 89 c2             	mov    %rax,%rdx
  402119:	48 8d 8d b0 bf ff ff 	lea    -0x4050(%rbp),%rcx
  402120:	8b 45 ec             	mov    -0x14(%rbp),%eax
  402123:	48 89 ce             	mov    %rcx,%rsi
  402126:	89 c7                	mov    %eax,%edi
  402128:	e8 08 fa ff ff       	callq  401b35 <rio_writen>
  40212d:	48 85 c0             	test   %rax,%rax
  402130:	79 64                	jns    402196 <submitr+0x478>
  402132:	48 8b 45 10          	mov    0x10(%rbp),%rax
  402136:	48 bb 45 72 72 6f 72 	movabs $0x43203a726f727245,%rbx
  40213d:	3a 20 43 
  402140:	48 89 18             	mov    %rbx,(%rax)
  402143:	48 ba 6c 69 65 6e 74 	movabs $0x6e7520746e65696c,%rdx
  40214a:	20 75 6e 
  40214d:	48 89 50 08          	mov    %rdx,0x8(%rax)
  402151:	48 b9 61 62 6c 65 20 	movabs $0x206f7420656c6261,%rcx
  402158:	74 6f 20 
  40215b:	48 89 48 10          	mov    %rcx,0x10(%rax)
  40215f:	48 be 77 72 69 74 65 	movabs $0x6f74206574697277,%rsi
  402166:	20 74 6f 
  402169:	48 89 70 18          	mov    %rsi,0x18(%rax)
  40216d:	48 bb 20 74 68 65 20 	movabs $0x7265732065687420,%rbx
  402174:	73 65 72 
  402177:	48 89 58 20          	mov    %rbx,0x20(%rax)
  40217b:	c7 40 28 76 65 72 00 	movl   $0x726576,0x28(%rax)
  402182:	8b 45 ec             	mov    -0x14(%rbp),%eax
  402185:	89 c7                	mov    %eax,%edi
  402187:	e8 34 ea ff ff       	callq  400bc0 <close@plt>
  40218c:	b8 ff ff ff ff       	mov    $0xffffffff,%eax
  402191:	e9 ad 02 00 00       	jmpq   402443 <submitr+0x725>
  402196:	8b 55 ec             	mov    -0x14(%rbp),%edx
  402199:	48 8d 85 b0 df ff ff 	lea    -0x2050(%rbp),%rax
  4021a0:	89 d6                	mov    %edx,%esi
  4021a2:	48 89 c7             	mov    %rax,%rdi
  4021a5:	e8 bf f7 ff ff       	callq  401969 <rio_readinitb>
  4021aa:	48 8d 8d b0 bf ff ff 	lea    -0x4050(%rbp),%rcx
  4021b1:	48 8d 85 b0 df ff ff 	lea    -0x2050(%rbp),%rax
  4021b8:	ba 00 20 00 00       	mov    $0x2000,%edx
  4021bd:	48 89 ce             	mov    %rcx,%rsi
  4021c0:	48 89 c7             	mov    %rax,%rdi
  4021c3:	e8 d0 f8 ff ff       	callq  401a98 <rio_readlineb>
  4021c8:	48 85 c0             	test   %rax,%rax
  4021cb:	7f 78                	jg     402245 <submitr+0x527>
  4021cd:	48 8b 45 10          	mov    0x10(%rbp),%rax
  4021d1:	48 ba 45 72 72 6f 72 	movabs $0x43203a726f727245,%rdx
  4021d8:	3a 20 43 
  4021db:	48 89 10             	mov    %rdx,(%rax)
  4021de:	48 b9 6c 69 65 6e 74 	movabs $0x6e7520746e65696c,%rcx
  4021e5:	20 75 6e 
  4021e8:	48 89 48 08          	mov    %rcx,0x8(%rax)
  4021ec:	48 be 61 62 6c 65 20 	movabs $0x206f7420656c6261,%rsi
  4021f3:	74 6f 20 
  4021f6:	48 89 70 10          	mov    %rsi,0x10(%rax)
  4021fa:	48 bb 72 65 61 64 20 	movabs $0x7269662064616572,%rbx
  402201:	66 69 72 
  402204:	48 89 58 18          	mov    %rbx,0x18(%rax)
  402208:	48 bf 73 74 20 68 65 	movabs $0x6564616568207473,%rdi
  40220f:	61 64 65 
  402212:	48 89 78 20          	mov    %rdi,0x20(%rax)
  402216:	48 ba 72 20 66 72 6f 	movabs $0x73206d6f72662072,%rdx
  40221d:	6d 20 73 
  402220:	48 89 50 28          	mov    %rdx,0x28(%rax)
  402224:	c7 40 30 65 72 76 65 	movl   $0x65767265,0x30(%rax)
  40222b:	66 c7 40 34 72 00    	movw   $0x72,0x34(%rax)
  402231:	8b 45 ec             	mov    -0x14(%rbp),%eax
  402234:	89 c7                	mov    %eax,%edi
  402236:	e8 85 e9 ff ff       	callq  400bc0 <close@plt>
  40223b:	b8 ff ff ff ff       	mov    $0xffffffff,%eax
  402240:	e9 fe 01 00 00       	jmpq   402443 <submitr+0x725>
  402245:	48 8d b5 a0 5f ff ff 	lea    -0xa060(%rbp),%rsi
  40224c:	48 8d 8d ac 7f ff ff 	lea    -0x8054(%rbp),%rcx
  402253:	48 8d 95 b0 7f ff ff 	lea    -0x8050(%rbp),%rdx
  40225a:	48 8d 85 b0 bf ff ff 	lea    -0x4050(%rbp),%rax
  402261:	49 89 f0             	mov    %rsi,%r8
  402264:	be ea 2b 40 00       	mov    $0x402bea,%esi
  402269:	48 89 c7             	mov    %rax,%rdi
  40226c:	b8 00 00 00 00       	mov    $0x0,%eax
  402271:	e8 fa e9 ff ff       	callq  400c70 <__isoc99_sscanf@plt>
  402276:	8b 85 ac 7f ff ff    	mov    -0x8054(%rbp),%eax
  40227c:	3d c8 00 00 00       	cmp    $0xc8,%eax
  402281:	74 39                	je     4022bc <submitr+0x59e>
  402283:	8b 85 ac 7f ff ff    	mov    -0x8054(%rbp),%eax
  402289:	48 8d 95 a0 5f ff ff 	lea    -0xa060(%rbp),%rdx
  402290:	48 89 d1             	mov    %rdx,%rcx
  402293:	89 c2                	mov    %eax,%edx
  402295:	be 00 2c 40 00       	mov    $0x402c00,%esi
  40229a:	48 8b 7d 10          	mov    0x10(%rbp),%rdi
  40229e:	b8 00 00 00 00       	mov    $0x0,%eax
  4022a3:	e8 18 ea ff ff       	callq  400cc0 <sprintf@plt>
  4022a8:	8b 45 ec             	mov    -0x14(%rbp),%eax
  4022ab:	89 c7                	mov    %eax,%edi
  4022ad:	e8 0e e9 ff ff       	callq  400bc0 <close@plt>
  4022b2:	b8 ff ff ff ff       	mov    $0xffffffff,%eax
  4022b7:	e9 87 01 00 00       	jmpq   402443 <submitr+0x725>
  4022bc:	e9 92 00 00 00       	jmpq   402353 <submitr+0x635>
  4022c1:	48 8d 8d b0 bf ff ff 	lea    -0x4050(%rbp),%rcx
  4022c8:	48 8d 85 b0 df ff ff 	lea    -0x2050(%rbp),%rax
  4022cf:	ba 00 20 00 00       	mov    $0x2000,%edx
  4022d4:	48 89 ce             	mov    %rcx,%rsi
  4022d7:	48 89 c7             	mov    %rax,%rdi
  4022da:	e8 b9 f7 ff ff       	callq  401a98 <rio_readlineb>
  4022df:	48 85 c0             	test   %rax,%rax
  4022e2:	7f 6f                	jg     402353 <submitr+0x635>
  4022e4:	48 8b 45 10          	mov    0x10(%rbp),%rax
  4022e8:	48 b9 45 72 72 6f 72 	movabs $0x43203a726f727245,%rcx
  4022ef:	3a 20 43 
  4022f2:	48 89 08             	mov    %rcx,(%rax)
  4022f5:	48 be 6c 69 65 6e 74 	movabs $0x6e7520746e65696c,%rsi
  4022fc:	20 75 6e 
  4022ff:	48 89 70 08          	mov    %rsi,0x8(%rax)
  402303:	48 bb 61 62 6c 65 20 	movabs $0x206f7420656c6261,%rbx
  40230a:	74 6f 20 
  40230d:	48 89 58 10          	mov    %rbx,0x10(%rax)
  402311:	48 bf 72 65 61 64 20 	movabs $0x6165682064616572,%rdi
  402318:	68 65 61 
  40231b:	48 89 78 18          	mov    %rdi,0x18(%rax)
  40231f:	48 ba 64 65 72 73 20 	movabs $0x6f72662073726564,%rdx
  402326:	66 72 6f 
  402329:	48 89 50 20          	mov    %rdx,0x20(%rax)
  40232d:	48 b9 6d 20 73 65 72 	movabs $0x726576726573206d,%rcx
  402334:	76 65 72 
  402337:	48 89 48 28          	mov    %rcx,0x28(%rax)
  40233b:	c6 40 30 00          	movb   $0x0,0x30(%rax)
  40233f:	8b 45 ec             	mov    -0x14(%rbp),%eax
  402342:	89 c7                	mov    %eax,%edi
  402344:	e8 77 e8 ff ff       	callq  400bc0 <close@plt>
  402349:	b8 ff ff ff ff       	mov    $0xffffffff,%eax
  40234e:	e9 f0 00 00 00       	jmpq   402443 <submitr+0x725>
  402353:	48 8d 85 b0 bf ff ff 	lea    -0x4050(%rbp),%rax
  40235a:	be 2d 2c 40 00       	mov    $0x402c2d,%esi
  40235f:	48 89 c7             	mov    %rax,%rdi
  402362:	e8 99 e8 ff ff       	callq  400c00 <strcmp@plt>
  402367:	85 c0                	test   %eax,%eax
  402369:	0f 85 52 ff ff ff    	jne    4022c1 <submitr+0x5a3>
  40236f:	48 8d 8d b0 bf ff ff 	lea    -0x4050(%rbp),%rcx
  402376:	48 8d 85 b0 df ff ff 	lea    -0x2050(%rbp),%rax
  40237d:	ba 00 20 00 00       	mov    $0x2000,%edx
  402382:	48 89 ce             	mov    %rcx,%rsi
  402385:	48 89 c7             	mov    %rax,%rdi
  402388:	e8 0b f7 ff ff       	callq  401a98 <rio_readlineb>
  40238d:	48 85 c0             	test   %rax,%rax
  402390:	7f 76                	jg     402408 <submitr+0x6ea>
  402392:	48 8b 45 10          	mov    0x10(%rbp),%rax
  402396:	48 be 45 72 72 6f 72 	movabs $0x43203a726f727245,%rsi
  40239d:	3a 20 43 
  4023a0:	48 89 30             	mov    %rsi,(%rax)
  4023a3:	48 bb 6c 69 65 6e 74 	movabs $0x6e7520746e65696c,%rbx
  4023aa:	20 75 6e 
  4023ad:	48 89 58 08          	mov    %rbx,0x8(%rax)
  4023b1:	48 bf 61 62 6c 65 20 	movabs $0x206f7420656c6261,%rdi
  4023b8:	74 6f 20 
  4023bb:	48 89 78 10          	mov    %rdi,0x10(%rax)
  4023bf:	48 ba 72 65 61 64 20 	movabs $0x6174732064616572,%rdx
  4023c6:	73 74 61 
  4023c9:	48 89 50 18          	mov    %rdx,0x18(%rax)
  4023cd:	48 b9 74 75 73 20 6d 	movabs $0x7373656d20737574,%rcx
  4023d4:	65 73 73 
  4023d7:	48 89 48 20          	mov    %rcx,0x20(%rax)
  4023db:	48 be 61 67 65 20 66 	movabs $0x6d6f726620656761,%rsi
  4023e2:	72 6f 6d 
  4023e5:	48 89 70 28          	mov    %rsi,0x28(%rax)
  4023e9:	48 bb 20 73 65 72 76 	movabs $0x72657672657320,%rbx
  4023f0:	65 72 00 
  4023f3:	48 89 58 30          	mov    %rbx,0x30(%rax)
  4023f7:	8b 45 ec             	mov    -0x14(%rbp),%eax
  4023fa:	89 c7                	mov    %eax,%edi
  4023fc:	e8 bf e7 ff ff       	callq  400bc0 <close@plt>
  402401:	b8 ff ff ff ff       	mov    $0xffffffff,%eax
  402406:	eb 3b                	jmp    402443 <submitr+0x725>
  402408:	48 8d 85 b0 bf ff ff 	lea    -0x4050(%rbp),%rax
  40240f:	48 89 c6             	mov    %rax,%rsi
  402412:	48 8b 7d 10          	mov    0x10(%rbp),%rdi
  402416:	e8 35 e7 ff ff       	callq  400b50 <strcpy@plt>
  40241b:	8b 45 ec             	mov    -0x14(%rbp),%eax
  40241e:	89 c7                	mov    %eax,%edi
  402420:	e8 9b e7 ff ff       	callq  400bc0 <close@plt>
  402425:	be 30 2c 40 00       	mov    $0x402c30,%esi
  40242a:	48 8b 7d 10          	mov    0x10(%rbp),%rdi
  40242e:	e8 cd e7 ff ff       	callq  400c00 <strcmp@plt>
  402433:	85 c0                	test   %eax,%eax
  402435:	75 07                	jne    40243e <submitr+0x720>
  402437:	b8 00 00 00 00       	mov    $0x0,%eax
  40243c:	eb 05                	jmp    402443 <submitr+0x725>
  40243e:	b8 ff ff ff ff       	mov    $0xffffffff,%eax
  402443:	48 81 c4 88 a0 00 00 	add    $0xa088,%rsp
  40244a:	5b                   	pop    %rbx
  40244b:	5d                   	pop    %rbp
  40244c:	c3                   	retq   

000000000040244d <init_timeout>:
init_timeout():
  40244d:	55                   	push   %rbp
  40244e:	48 89 e5             	mov    %rsp,%rbp
  402451:	48 83 ec 10          	sub    $0x10,%rsp
  402455:	89 7d fc             	mov    %edi,-0x4(%rbp)
  402458:	83 7d fc 00          	cmpl   $0x0,-0x4(%rbp)
  40245c:	75 02                	jne    402460 <init_timeout+0x13>
  40245e:	eb 26                	jmp    402486 <init_timeout+0x39>
  402460:	83 7d fc 00          	cmpl   $0x0,-0x4(%rbp)
  402464:	79 07                	jns    40246d <init_timeout+0x20>
  402466:	c7 45 fc 00 00 00 00 	movl   $0x0,-0x4(%rbp)
  40246d:	be 36 19 40 00       	mov    $0x401936,%esi
  402472:	bf 0e 00 00 00       	mov    $0xe,%edi
  402477:	e8 94 e7 ff ff       	callq  400c10 <signal@plt>
  40247c:	8b 45 fc             	mov    -0x4(%rbp),%eax
  40247f:	89 c7                	mov    %eax,%edi
  402481:	e8 2a e7 ff ff       	callq  400bb0 <alarm@plt>
  402486:	c9                   	leaveq 
  402487:	c3                   	retq   

0000000000402488 <init_driver>:
init_driver():
  402488:	55                   	push   %rbp
  402489:	48 89 e5             	mov    %rsp,%rbp
  40248c:	48 83 ec 40          	sub    $0x40,%rsp
  402490:	48 89 7d c8          	mov    %rdi,-0x38(%rbp)
  402494:	48 c7 45 f8 33 2c 40 	movq   $0x402c33,-0x8(%rbp)
  40249b:	00 
  40249c:	c7 45 f4 6e 3b 00 00 	movl   $0x3b6e,-0xc(%rbp)
  4024a3:	be 01 00 00 00       	mov    $0x1,%esi
  4024a8:	bf 0d 00 00 00       	mov    $0xd,%edi
  4024ad:	e8 5e e7 ff ff       	callq  400c10 <signal@plt>
  4024b2:	be 01 00 00 00       	mov    $0x1,%esi
  4024b7:	bf 1d 00 00 00       	mov    $0x1d,%edi
  4024bc:	e8 4f e7 ff ff       	callq  400c10 <signal@plt>
  4024c1:	be 01 00 00 00       	mov    $0x1,%esi
  4024c6:	bf 1d 00 00 00       	mov    $0x1d,%edi
  4024cb:	e8 40 e7 ff ff       	callq  400c10 <signal@plt>
  4024d0:	ba 00 00 00 00       	mov    $0x0,%edx
  4024d5:	be 01 00 00 00       	mov    $0x1,%esi
  4024da:	bf 02 00 00 00       	mov    $0x2,%edi
  4024df:	e8 2c e8 ff ff       	callq  400d10 <socket@plt>
  4024e4:	89 45 f0             	mov    %eax,-0x10(%rbp)
  4024e7:	83 7d f0 00          	cmpl   $0x0,-0x10(%rbp)
  4024eb:	79 52                	jns    40253f <init_driver+0xb7>
  4024ed:	48 8b 45 c8          	mov    -0x38(%rbp),%rax
  4024f1:	48 b9 45 72 72 6f 72 	movabs $0x43203a726f727245,%rcx
  4024f8:	3a 20 43 
  4024fb:	48 89 08             	mov    %rcx,(%rax)
  4024fe:	48 ba 6c 69 65 6e 74 	movabs $0x6e7520746e65696c,%rdx
  402505:	20 75 6e 
  402508:	48 89 50 08          	mov    %rdx,0x8(%rax)
  40250c:	48 b9 61 62 6c 65 20 	movabs $0x206f7420656c6261,%rcx
  402513:	74 6f 20 
  402516:	48 89 48 10          	mov    %rcx,0x10(%rax)
  40251a:	48 be 63 72 65 61 74 	movabs $0x7320657461657263,%rsi
  402521:	65 20 73 
  402524:	48 89 70 18          	mov    %rsi,0x18(%rax)
  402528:	c7 40 20 6f 63 6b 65 	movl   $0x656b636f,0x20(%rax)
  40252f:	66 c7 40 24 74 00    	movw   $0x74,0x24(%rax)
  402535:	b8 ff ff ff ff       	mov    $0xffffffff,%eax
  40253a:	e9 36 01 00 00       	jmpq   402675 <init_driver+0x1ed>
  40253f:	48 8b 45 f8          	mov    -0x8(%rbp),%rax
  402543:	48 89 c7             	mov    %rax,%rdi
  402546:	e8 d5 e6 ff ff       	callq  400c20 <gethostbyname@plt>
  40254b:	48 89 45 e8          	mov    %rax,-0x18(%rbp)
  40254f:	48 83 7d e8 00       	cmpq   $0x0,-0x18(%rbp)
  402554:	75 6e                	jne    4025c4 <init_driver+0x13c>
  402556:	48 8b 45 c8          	mov    -0x38(%rbp),%rax
  40255a:	48 ba 45 72 72 6f 72 	movabs $0x44203a726f727245,%rdx
  402561:	3a 20 44 
  402564:	48 89 10             	mov    %rdx,(%rax)
  402567:	48 b9 4e 53 20 69 73 	movabs $0x6e7520736920534e,%rcx
  40256e:	20 75 6e 
  402571:	48 89 48 08          	mov    %rcx,0x8(%rax)
  402575:	48 be 61 62 6c 65 20 	movabs $0x206f7420656c6261,%rsi
  40257c:	74 6f 20 
  40257f:	48 89 70 10          	mov    %rsi,0x10(%rax)
  402583:	48 ba 72 65 73 6f 6c 	movabs $0x2065766c6f736572,%rdx
  40258a:	76 65 20 
  40258d:	48 89 50 18          	mov    %rdx,0x18(%rax)
  402591:	48 b9 73 65 72 76 65 	movabs $0x6120726576726573,%rcx
  402598:	72 20 61 
  40259b:	48 89 48 20          	mov    %rcx,0x20(%rax)
  40259f:	c7 40 28 64 64 72 65 	movl   $0x65726464,0x28(%rax)
  4025a6:	66 c7 40 2c 73 73    	movw   $0x7373,0x2c(%rax)
  4025ac:	c6 40 2e 00          	movb   $0x0,0x2e(%rax)
  4025b0:	8b 45 f0             	mov    -0x10(%rbp),%eax
  4025b3:	89 c7                	mov    %eax,%edi
  4025b5:	e8 06 e6 ff ff       	callq  400bc0 <close@plt>
  4025ba:	b8 ff ff ff ff       	mov    $0xffffffff,%eax
  4025bf:	e9 b1 00 00 00       	jmpq   402675 <init_driver+0x1ed>
  4025c4:	48 8d 45 d0          	lea    -0x30(%rbp),%rax
  4025c8:	be 10 00 00 00       	mov    $0x10,%esi
  4025cd:	48 89 c7             	mov    %rax,%rdi
  4025d0:	e8 cb e6 ff ff       	callq  400ca0 <bzero@plt>
  4025d5:	66 c7 45 d0 02 00    	movw   $0x2,-0x30(%rbp)
  4025db:	48 8b 45 e8          	mov    -0x18(%rbp),%rax
  4025df:	8b 40 14             	mov    0x14(%rax),%eax
  4025e2:	48 63 d0             	movslq %eax,%rdx
  4025e5:	48 8b 45 e8          	mov    -0x18(%rbp),%rax
  4025e9:	48 8b 40 18          	mov    0x18(%rax),%rax
  4025ed:	48 8b 00             	mov    (%rax),%rax
  4025f0:	48 8d 4d d0          	lea    -0x30(%rbp),%rcx
  4025f4:	48 83 c1 04          	add    $0x4,%rcx
  4025f8:	48 89 ce             	mov    %rcx,%rsi
  4025fb:	48 89 c7             	mov    %rax,%rdi
  4025fe:	e8 7d e6 ff ff       	callq  400c80 <bcopy@plt>
  402603:	8b 45 f4             	mov    -0xc(%rbp),%eax
  402606:	0f b7 c0             	movzwl %ax,%eax
  402609:	89 c7                	mov    %eax,%edi
  40260b:	e8 80 e5 ff ff       	callq  400b90 <htons@plt>
  402610:	66 89 45 d2          	mov    %ax,-0x2e(%rbp)
  402614:	48 8d 4d d0          	lea    -0x30(%rbp),%rcx
  402618:	8b 45 f0             	mov    -0x10(%rbp),%eax
  40261b:	ba 10 00 00 00       	mov    $0x10,%edx
  402620:	48 89 ce             	mov    %rcx,%rsi
  402623:	89 c7                	mov    %eax,%edi
  402625:	e8 b6 e6 ff ff       	callq  400ce0 <connect@plt>
  40262a:	85 c0                	test   %eax,%eax
  40262c:	79 2b                	jns    402659 <init_driver+0x1d1>
  40262e:	48 8b 55 f8          	mov    -0x8(%rbp),%rdx
  402632:	48 8b 45 c8          	mov    -0x38(%rbp),%rax
  402636:	be 50 2c 40 00       	mov    $0x402c50,%esi
  40263b:	48 89 c7             	mov    %rax,%rdi
  40263e:	b8 00 00 00 00       	mov    $0x0,%eax
  402643:	e8 78 e6 ff ff       	callq  400cc0 <sprintf@plt>
  402648:	8b 45 f0             	mov    -0x10(%rbp),%eax
  40264b:	89 c7                	mov    %eax,%edi
  40264d:	e8 6e e5 ff ff       	callq  400bc0 <close@plt>
  402652:	b8 ff ff ff ff       	mov    $0xffffffff,%eax
  402657:	eb 1c                	jmp    402675 <init_driver+0x1ed>
  402659:	8b 45 f0             	mov    -0x10(%rbp),%eax
  40265c:	89 c7                	mov    %eax,%edi
  40265e:	e8 5d e5 ff ff       	callq  400bc0 <close@plt>
  402663:	48 8b 45 c8          	mov    -0x38(%rbp),%rax
  402667:	66 c7 00 4f 4b       	movw   $0x4b4f,(%rax)
  40266c:	c6 40 02 00          	movb   $0x0,0x2(%rax)
  402670:	b8 00 00 00 00       	mov    $0x0,%eax
  402675:	c9                   	leaveq 
  402676:	c3                   	retq   

0000000000402677 <driver_post>:
driver_post():
  402677:	55                   	push   %rbp
  402678:	48 89 e5             	mov    %rsp,%rbp
  40267b:	48 83 ec 30          	sub    $0x30,%rsp
  40267f:	48 89 7d e8          	mov    %rdi,-0x18(%rbp)
  402683:	48 89 75 e0          	mov    %rsi,-0x20(%rbp)
  402687:	89 55 dc             	mov    %edx,-0x24(%rbp)
  40268a:	48 89 4d d0          	mov    %rcx,-0x30(%rbp)
  40268e:	83 7d dc 00          	cmpl   $0x0,-0x24(%rbp)
  402692:	74 2a                	je     4026be <driver_post+0x47>
  402694:	48 8b 45 e0          	mov    -0x20(%rbp),%rax
  402698:	48 89 c6             	mov    %rax,%rsi
  40269b:	bf 76 2c 40 00       	mov    $0x402c76,%edi
  4026a0:	b8 00 00 00 00       	mov    $0x0,%eax
  4026a5:	e8 f6 e4 ff ff       	callq  400ba0 <printf@plt>
  4026aa:	48 8b 45 d0          	mov    -0x30(%rbp),%rax
  4026ae:	66 c7 00 4f 4b       	movw   $0x4b4f,(%rax)
  4026b3:	c6 40 02 00          	movb   $0x0,0x2(%rax)
  4026b7:	b8 00 00 00 00       	mov    $0x0,%eax
  4026bc:	eb 5f                	jmp    40271d <driver_post+0xa6>
  4026be:	48 83 7d e8 00       	cmpq   $0x0,-0x18(%rbp)
  4026c3:	74 46                	je     40270b <driver_post+0x94>
  4026c5:	48 8b 45 e8          	mov    -0x18(%rbp),%rax
  4026c9:	0f b6 00             	movzbl (%rax),%eax
  4026cc:	84 c0                	test   %al,%al
  4026ce:	74 3b                	je     40270b <driver_post+0x94>
  4026d0:	48 83 ec 08          	sub    $0x8,%rsp
  4026d4:	48 8b 55 e0          	mov    -0x20(%rbp),%rdx
  4026d8:	48 8b 45 e8          	mov    -0x18(%rbp),%rax
  4026dc:	ff 75 d0             	pushq  -0x30(%rbp)
  4026df:	49 89 d1             	mov    %rdx,%r9
  4026e2:	41 b8 8d 2c 40 00    	mov    $0x402c8d,%r8d
  4026e8:	48 89 c1             	mov    %rax,%rcx
  4026eb:	ba 95 2c 40 00       	mov    $0x402c95,%edx
  4026f0:	be 6e 3b 00 00       	mov    $0x3b6e,%esi
  4026f5:	bf 33 2c 40 00       	mov    $0x402c33,%edi
  4026fa:	e8 1f f6 ff ff       	callq  401d1e <submitr>
  4026ff:	48 83 c4 10          	add    $0x10,%rsp
  402703:	89 45 fc             	mov    %eax,-0x4(%rbp)
  402706:	8b 45 fc             	mov    -0x4(%rbp),%eax
  402709:	eb 12                	jmp    40271d <driver_post+0xa6>
  40270b:	48 8b 45 d0          	mov    -0x30(%rbp),%rax
  40270f:	66 c7 00 4f 4b       	movw   $0x4b4f,(%rax)
  402714:	c6 40 02 00          	movb   $0x0,0x2(%rax)
  402718:	b8 00 00 00 00       	mov    $0x0,%eax
  40271d:	c9                   	leaveq 
  40271e:	c3                   	retq   
  40271f:	90                   	nop

0000000000402720 <__libc_csu_init>:
__libc_csu_init():
  402720:	41 57                	push   %r15
  402722:	41 89 ff             	mov    %edi,%r15d
  402725:	41 56                	push   %r14
  402727:	49 89 f6             	mov    %rsi,%r14
  40272a:	41 55                	push   %r13
  40272c:	49 89 d5             	mov    %rdx,%r13
  40272f:	41 54                	push   %r12
  402731:	4c 8d 25 78 0b 20 00 	lea    0x200b78(%rip),%r12        # 6032b0 <__frame_dummy_init_array_entry>
  402738:	55                   	push   %rbp
  402739:	48 8d 2d 78 0b 20 00 	lea    0x200b78(%rip),%rbp        # 6032b8 <__init_array_end>
  402740:	53                   	push   %rbx
  402741:	4c 29 e5             	sub    %r12,%rbp
  402744:	31 db                	xor    %ebx,%ebx
  402746:	48 c1 fd 03          	sar    $0x3,%rbp
  40274a:	48 83 ec 08          	sub    $0x8,%rsp
  40274e:	e8 a5 e3 ff ff       	callq  400af8 <_init>
  402753:	48 85 ed             	test   %rbp,%rbp
  402756:	74 1e                	je     402776 <__libc_csu_init+0x56>
  402758:	0f 1f 84 00 00 00 00 	nopl   0x0(%rax,%rax,1)
  40275f:	00 
  402760:	4c 89 ea             	mov    %r13,%rdx
  402763:	4c 89 f6             	mov    %r14,%rsi
  402766:	44 89 ff             	mov    %r15d,%edi
  402769:	41 ff 14 dc          	callq  *(%r12,%rbx,8)
  40276d:	48 83 c3 01          	add    $0x1,%rbx
  402771:	48 39 eb             	cmp    %rbp,%rbx
  402774:	75 ea                	jne    402760 <__libc_csu_init+0x40>
  402776:	48 83 c4 08          	add    $0x8,%rsp
  40277a:	5b                   	pop    %rbx
  40277b:	5d                   	pop    %rbp
  40277c:	41 5c                	pop    %r12
  40277e:	41 5d                	pop    %r13
  402780:	41 5e                	pop    %r14
  402782:	41 5f                	pop    %r15
  402784:	c3                   	retq   
  402785:	66 66 2e 0f 1f 84 00 	data16 nopw %cs:0x0(%rax,%rax,1)
  40278c:	00 00 00 00 

0000000000402790 <__libc_csu_fini>:
__libc_csu_fini():
  402790:	f3 c3                	repz retq 

Disassembly of section .fini:

0000000000402794 <_fini>:
_fini():
  402794:	48 83 ec 08          	sub    $0x8,%rsp
  402798:	48 83 c4 08          	add    $0x8,%rsp
  40279c:	c3                   	retq   
